
bin/table.o:     file format elf32-tradlittlemips


Disassembly of section .text:

00000000 <table_create>:
   0:	27bdffd8 	addiu	sp,sp,-40
   4:	afbf0024 	sw	ra,36(sp)
   8:	afbe0020 	sw	s8,32(sp)
   c:	03a0f021 	move	s8,sp
  10:	3c1c0000 	lui	gp,0x0
  14:	279c0000 	addiu	gp,gp,0
  18:	afbc0010 	sw	gp,16(sp)
  1c:	afc40028 	sw	a0,40(s8)
  20:	afc5002c 	sw	a1,44(s8)
  24:	8fc20028 	lw	v0,40(s8)
  28:	00200825 	move	at,at
  2c:	24420002 	addiu	v0,v0,2
  30:	00021080 	sll	v0,v0,0x2
  34:	afc2001c 	sw	v0,28(s8)
  38:	24040004 	li	a0,4
  3c:	8f820000 	lw	v0,0(gp)
  40:	00200825 	move	at,at
  44:	0040c821 	move	t9,v0
  48:	0320f809 	jalr	t9
  4c:	00200825 	move	at,at
  50:	8fdc0010 	lw	gp,16(s8)
  54:	afc20018 	sw	v0,24(s8)
  58:	8fc20018 	lw	v0,24(s8)
  5c:	00200825 	move	at,at
  60:	ac400000 	sw	zero,0(v0)
  64:	3c020000 	lui	v0,0x0
  68:	24420000 	addiu	v0,v0,0
  6c:	00402021 	move	a0,v0
  70:	8fc50018 	lw	a1,24(s8)
  74:	8f820000 	lw	v0,0(gp)
  78:	00200825 	move	at,at
  7c:	0040c821 	move	t9,v0
  80:	0320f809 	jalr	t9
  84:	00200825 	move	at,at
  88:	8fdc0010 	lw	gp,16(s8)
  8c:	8fc20018 	lw	v0,24(s8)
  90:	03c0e821 	move	sp,s8
  94:	8fbf0024 	lw	ra,36(sp)
  98:	8fbe0020 	lw	s8,32(sp)
  9c:	27bd0028 	addiu	sp,sp,40
  a0:	03e00008 	jr	ra
  a4:	00200825 	move	at,at

000000a8 <table_set>:
  a8:	27bdfff8 	addiu	sp,sp,-8
  ac:	afbe0004 	sw	s8,4(sp)
  b0:	03a0f021 	move	s8,sp
  b4:	afc40008 	sw	a0,8(s8)
  b8:	afc5000c 	sw	a1,12(s8)
  bc:	afc60010 	sw	a2,16(s8)
  c0:	afc70014 	sw	a3,20(s8)
  c4:	8fc2000c 	lw	v0,12(s8)
  c8:	00200825 	move	at,at
  cc:	2442ffff 	addiu	v0,v0,-1
  d0:	8fc30008 	lw	v1,8(s8)
  d4:	24420002 	addiu	v0,v0,2
  d8:	00021080 	sll	v0,v0,0x2
  dc:	00621021 	addu	v0,v1,v0
  e0:	8fc30014 	lw	v1,20(s8)
  e4:	00200825 	move	at,at
  e8:	ac430000 	sw	v1,0(v0)
  ec:	03c0e821 	move	sp,s8
  f0:	8fbe0004 	lw	s8,4(sp)
  f4:	27bd0008 	addiu	sp,sp,8
  f8:	03e00008 	jr	ra
  fc:	00200825 	move	at,at

00000100 <table_get>:
 100:	27bdffe8 	addiu	sp,sp,-24
 104:	afbe0014 	sw	s8,20(sp)
 108:	03a0f021 	move	s8,sp
 10c:	00801021 	move	v0,a0
 110:	afc5001c 	sw	a1,28(s8)
 114:	afc60020 	sw	a2,32(s8)
 118:	afc70024 	sw	a3,36(s8)
 11c:	8fc30024 	lw	v1,36(s8)
 120:	8fc4001c 	lw	a0,28(s8)
 124:	24630002 	addiu	v1,v1,2
 128:	00031880 	sll	v1,v1,0x2
 12c:	00831821 	addu	v1,a0,v1
 130:	8c630000 	lw	v1,0(v1)
 134:	00200825 	move	at,at
 138:	afc30008 	sw	v1,8(s8)
 13c:	8fc30008 	lw	v1,8(s8)
 140:	00200825 	move	at,at
 144:	ac430000 	sw	v1,0(v0)
 148:	03c0e821 	move	sp,s8
 14c:	8fbe0014 	lw	s8,20(sp)
 150:	27bd0018 	addiu	sp,sp,24
 154:	03e00008 	jr	ra
 158:	00200825 	move	at,at

0000015c <table_setlist>:
 15c:	27bdffd0 	addiu	sp,sp,-48
 160:	afbf002c 	sw	ra,44(sp)
 164:	afbe0028 	sw	s8,40(sp)
 168:	afb00024 	sw	s0,36(sp)
 16c:	03a0f021 	move	s8,sp
 170:	3c1c0000 	lui	gp,0x0
 174:	279c0000 	addiu	gp,gp,0
 178:	afbc0010 	sw	gp,16(sp)
 17c:	afc40030 	sw	a0,48(s8)
 180:	afc50034 	sw	a1,52(s8)
 184:	afc60038 	sw	a2,56(s8)
 188:	afc7003c 	sw	a3,60(s8)
 18c:	afc00018 	sw	zero,24(s8)
 190:	10000021 	b	218 <table_setlist+0xbc>
 194:	00200825 	move	at,at
 198:	8fc20030 	lw	v0,48(s8)
 19c:	00200825 	move	at,at
 1a0:	24430008 	addiu	v1,v0,8
 1a4:	8fc40038 	lw	a0,56(s8)
 1a8:	8fc20018 	lw	v0,24(s8)
 1ac:	00200825 	move	at,at
 1b0:	00821021 	addu	v0,a0,v0
 1b4:	00021080 	sll	v0,v0,0x2
 1b8:	00628021 	addu	s0,v1,v0
 1bc:	8fc40018 	lw	a0,24(s8)
 1c0:	8f820000 	lw	v0,0(gp)
 1c4:	00200825 	move	at,at
 1c8:	0040c821 	move	t9,v0
 1cc:	0320f809 	jalr	t9
 1d0:	00200825 	move	at,at
 1d4:	8fdc0010 	lw	gp,16(s8)
 1d8:	8fc30034 	lw	v1,52(s8)
 1dc:	00200825 	move	at,at
 1e0:	00621021 	addu	v0,v1,v0
 1e4:	02002021 	move	a0,s0
 1e8:	00402821 	move	a1,v0
 1ec:	24060004 	li	a2,4
 1f0:	8f820000 	lw	v0,0(gp)
 1f4:	00200825 	move	at,at
 1f8:	0040c821 	move	t9,v0
 1fc:	0320f809 	jalr	t9
 200:	00200825 	move	at,at
 204:	8fdc0010 	lw	gp,16(s8)
 208:	8fc20018 	lw	v0,24(s8)
 20c:	00200825 	move	at,at
 210:	24420001 	addiu	v0,v0,1
 214:	afc20018 	sw	v0,24(s8)
 218:	8fc30018 	lw	v1,24(s8)
 21c:	8fc2003c 	lw	v0,60(s8)
 220:	00200825 	move	at,at
 224:	0062102a 	slt	v0,v1,v0
 228:	1440ffdb 	bnez	v0,198 <table_setlist+0x3c>
 22c:	00200825 	move	at,at
 230:	03c0e821 	move	sp,s8
 234:	8fbf002c 	lw	ra,44(sp)
 238:	8fbe0028 	lw	s8,40(sp)
 23c:	8fb00024 	lw	s0,36(sp)
 240:	27bd0030 	addiu	sp,sp,48
 244:	03e00008 	jr	ra
 248:	00200825 	move	at,at

0000024c <foobar>:
 24c:	27bdffc8 	addiu	sp,sp,-56
 250:	afbf0034 	sw	ra,52(sp)
 254:	afbe0030 	sw	s8,48(sp)
 258:	03a0f021 	move	s8,sp
 25c:	24020064 	li	v0,100
 260:	afc20020 	sw	v0,32(s8)
 264:	27c20028 	addiu	v0,s8,40
 268:	afa00010 	sw	zero,16(sp)
 26c:	00402021 	move	a0,v0
 270:	00002821 	move	a1,zero
 274:	24060003 	li	a2,3
 278:	8fc70020 	lw	a3,32(s8)
 27c:	0c000000 	jal	0 <table_create>
 280:	00200825 	move	at,at
 284:	03c0e821 	move	sp,s8
 288:	8fbf0034 	lw	ra,52(sp)
 28c:	8fbe0030 	lw	s8,48(sp)
 290:	27bd0038 	addiu	sp,sp,56
 294:	03e00008 	jr	ra
 298:	00200825 	move	at,at
 29c:	00200825 	move	at,at

Disassembly of section .reginfo:

00000000 <.reginfo>:
   0:	f20100fc 	0xf20100fc
	...

Disassembly of section .pdr:

00000000 <.pdr>:
   0:	00000000 	nop
   4:	c0000000 	lwc0	$0,0(zero)
   8:	fffffffc 	0xfffffffc
	...
  14:	00000028 	0x28
  18:	0000001e 	0x1e
  1c:	0000001f 	0x1f
  20:	00000000 	nop
  24:	40000000 	mfc0	zero,c0_index
  28:	fffffffc 	0xfffffffc
	...
  34:	00000008 	jr	zero
  38:	0000001e 	0x1e
  3c:	0000001f 	0x1f
  40:	00000000 	nop
  44:	40000000 	mfc0	zero,c0_index
  48:	fffffffc 	0xfffffffc
	...
  54:	00000018 	mult	zero,zero
  58:	0000001e 	0x1e
  5c:	0000001f 	0x1f
  60:	00000000 	nop
  64:	c0010000 	lwc0	$1,0(zero)
  68:	fffffffc 	0xfffffffc
	...
  74:	00000030 	0x30
  78:	0000001e 	0x1e
  7c:	0000001f 	0x1f
  80:	00000000 	nop
  84:	c0000000 	lwc0	$0,0(zero)
  88:	fffffffc 	0xfffffffc
	...
  94:	00000038 	0x38
  98:	0000001e 	0x1e
  9c:	0000001f 	0x1f

Disassembly of section .debug_abbrev:

00000000 <.debug_abbrev>:
   0:	25011101 	addiu	at,t0,4353
   4:	030b130e 	0x30b130e
   8:	110e1b0e 	beq	t0,t6,6c44 <foobar+0x69f8>
   c:	10011201 	beq	zero,at,4814 <foobar+0x45c8>
  10:	00064306 	0x64306
  14:	00160200 	sll	zero,s6,0x8
  18:	0b3a0e03 	j	ce8380c <foobar+0xce835c0>
  1c:	13490b3b 	beq	k0,t1,2d0c <foobar+0x2ac0>
  20:	24030000 	li	v1,0
  24:	3e0b0b00 	0x3e0b0b00
  28:	000e030b 	0xe030b
  2c:	00240400 	0x240400
  30:	0b3e0b0b 	j	cf82c2c <foobar+0xcf829e0>
  34:	00000803 	sra	at,zero,0x0
  38:	0b002405 	j	c009014 <foobar+0xc008dc8>
  3c:	000b3e0b 	0xb3e0b
  40:	000f0600 	sll	zero,t7,0x18
  44:	00000b0b 	0xb0b
  48:	03001607 	0x3001607
  4c:	3b0b3a08 	xori	t3,t8,0x3a08
  50:	0013490b 	0x13490b
  54:	01170800 	0x1170800
  58:	0b0b0e03 	j	c2c380c <foobar+0xc2c35c0>
  5c:	0b3b0b3a 	j	cec2ce8 <foobar+0xcec2a9c>
  60:	00001301 	0x1301
  64:	03000d09 	0x3000d09
  68:	3b0b3a08 	xori	t3,t8,0x3a08
  6c:	0013490b 	0x13490b
  70:	01130a00 	0x1130a00
  74:	0b0b0e03 	j	c2c380c <foobar+0xc2c35c0>
  78:	0b3b0b3a 	j	cec2ce8 <foobar+0xcec2a9c>
  7c:	00001301 	0x1301
  80:	03000d0b 	0x3000d0b
  84:	3b0b3a08 	xori	t3,t8,0x3a08
  88:	3813490b 	xori	s3,zero,0x490b
  8c:	0c00000a 	jal	28 <.debug_abbrev+0x28>
  90:	0e03000d 	jal	80c0034 <foobar+0x80bfde8>
  94:	0b3b0b3a 	j	cec2ce8 <foobar+0xcec2a9c>
  98:	0a381349 	j	8e04d24 <foobar+0x8e04ad8>
  9c:	010d0000 	0x10d0000
  a0:	01134901 	0x1134901
  a4:	0e000013 	jal	800004c <foobar+0x7fffe00>
  a8:	13490021 	beq	k0,t1,130 <.debug_abbrev+0x130>
  ac:	2e0f0000 	sltiu	t7,s0,0
  b0:	030c3f01 	0x30c3f01
  b4:	3b0b3a0e 	xori	t3,t8,0x3a0e
  b8:	490c270b 	0x490c270b
  bc:	12011113 	beq	s0,at,450c <foobar+0x42c0>
  c0:	01064001 	0x1064001
  c4:	10000013 	b	114 <.debug_abbrev+0x114>
  c8:	0e030005 	jal	80c0014 <foobar+0x80bfdc8>
  cc:	0b3b0b3a 	j	cec2ce8 <foobar+0xcec2a9c>
  d0:	0a021349 	j	8084d24 <foobar+0x8084ad8>
  d4:	34110000 	li	s1,0x0
  d8:	3a080300 	xori	t0,s0,0x300
  dc:	490b3b0b 	0x490b3b0b
  e0:	000a0213 	0xa0213
  e4:	000f1200 	sll	v0,t7,0x8
  e8:	13490b0b 	beq	k0,t1,2d18 <foobar+0x2acc>
  ec:	2e130000 	sltiu	s3,s0,0
  f0:	030c3f01 	0x30c3f01
  f4:	3b0b3a0e 	xori	t3,t8,0x3a0e
  f8:	110c270b 	beq	t0,t4,9d28 <foobar+0x9adc>
  fc:	40011201 	0x40011201
 100:	00130106 	0x130106
 104:	00051400 	sll	v0,a1,0x10
 108:	0b3a0803 	j	ce8200c <foobar+0xce81dc0>
 10c:	13490b3b 	beq	k0,t1,2dfc <foobar+0x2bb0>
 110:	00000a02 	srl	at,zero,0x8
 114:	11010b15 	beq	t0,at,2d6c <foobar+0x2b20>
 118:	00011201 	0x11201
 11c:	012e1600 	0x12e1600
 120:	0e030c3f 	jal	80c30fc <foobar+0x80c2eb0>
 124:	0b3b0b3a 	j	cec2ce8 <foobar+0xcec2a9c>
 128:	01120111 	0x1120111
 12c:	00000640 	sll	zero,zero,0x19
	...

Disassembly of section .debug_info:

00000000 <.debug_info>:
   0:	000002c3 	sra	zero,zero,0xb
   4:	00000002 	srl	zero,zero,0x0
   8:	01040000 	0x1040000
   c:	000000d7 	0xd7
  10:	00012201 	0x12201
  14:	0000a100 	sll	s4,zero,0x4
  18:	00000000 	nop
  1c:	00029c00 	sll	s3,v0,0x10
	...
  28:	00520200 	0x520200
  2c:	d3090000 	0xd3090000
  30:	00000034 	0x34
  34:	73070403 	0x73070403
  38:	04000000 	bltz	zero,3c <.debug_info+0x3c>
  3c:	6e690504 	0x6e690504
  40:	04030074 	0x4030074
  44:	00011105 	0x11105
  48:	05080300 	0x5080300
  4c:	000000bd 	0xbd
  50:	14080103 	bne	zero,t0,460 <foobar+0x214>
  54:	03000000 	0x3000000
  58:	003f0702 	0x3f0702
  5c:	04030000 	0x4030000
  60:	00002d07 	0x2d07
  64:	06010300 	bgez	s0,c68 <foobar+0xa1c>
  68:	0000012a 	0x12a
  6c:	f4050203 	0xf4050203
  70:	03000000 	0x3000000
  74:	00800708 	0x800708
  78:	04050000 	0x4050000
  7c:	03040607 	0x3040607
  80:	00d20601 	0xd20601
  84:	08020000 	j	80000 <foobar+0x7fdb4>
  88:	2a000001 	slti	zero,s0,1
  8c:	00003434 	0x3434
  90:	02010300 	0x2010300
  94:	00000136 	0x136
  98:	00000f02 	srl	at,zero,0x1c
  9c:	860c2e00 	lh	t4,11776(s0)
  a0:	02000000 	0x2000000
  a4:	00000022 	neg	zero,zero
  a8:	00980d2e 	0x980d2e
  ac:	54070000 	0x54070000
  b0:	2e006761 	sltiu	zero,s0,26465
  b4:	0000980e 	0x980e
  b8:	006d0800 	0x6d0800
  bc:	2e040000 	sltiu	a0,s0,0
  c0:	0000d810 	mfhi	k1
  c4:	00620900 	0x620900
  c8:	0091122e 	0x91122e
  cc:	6e090000 	0x6e090000
  d0:	a3132e00 	sb	s3,11776(t8)
  d4:	00000000 	nop
  d8:	0000590a 	0x590a
  dc:	12010800 	beq	s0,at,20e0 <foobar+0x1e94>
  e0:	0000010f 	0x10f
  e4:	6665720b 	0x6665720b
  e8:	3b130100 	xori	s3,t8,0x100
  ec:	02000000 	0x2000000
  f0:	9c0c0023 	0x9c0c0023
  f4:	01000000 	0x1000000
  f8:	00007d14 	0x7d14
  fc:	04230200 	0x4230200
 100:	0000ee0c 	syscall	0x3b8
 104:	0f150100 	jal	c540400 <foobar+0xc5401b4>
 108:	02000001 	0x2000001
 10c:	0d000823 	jal	400208c <foobar+0x4001e40>
 110:	0000003b 	0x3b
 114:	0000011e 	0x11e
 118:	00007a0e 	0x7a0e
 11c:	1a020000 	0x1a020000
 120:	01000001 	0x1000001
 124:	0000d816 	0xd816
 128:	3c010f00 	lui	at,0xf00
 12c:	01000001 	0x1000001
 130:	017c0118 	0x17c0118
 134:	00000000 	nop
 138:	00a80000 	0xa80000
 13c:	00000000 	nop
 140:	017c0000 	0x17c0000
 144:	ee100000 	swc3	$16,0(s0)
 148:	01000000 	0x1000000
 14c:	00003b18 	0x3b18
 150:	00910200 	0x910200
 154:	00009c10 	0x9c10
 158:	3b180100 	xori	t8,t8,0x100
 15c:	02000000 	0x2000000
 160:	73110491 	0x73110491
 164:	1901007a 	0x1901007a
 168:	00000029 	0x29
 16c:	11749102 	beq	t3,s4,fffe4578 <foobar+0xfffe432c>
 170:	1a010074 	0x1a010074
 174:	0000017c 	0x17c
 178:	00709102 	0x709102
 17c:	011e0412 	0x11e0412
 180:	01130000 	0x1130000
 184:	00000000 	nop
 188:	a8012401 	swl	at,9217(zero)
 18c:	00000000 	nop
 190:	2b000001 	slti	zero,t8,1
 194:	d2000000 	0xd2000000
 198:	14000001 	bnez	zero,1a0 <.debug_info+0x1a0>
 19c:	24010074 	li	at,116
 1a0:	000001d2 	0x1d2
 1a4:	14009102 	bnez	zero,fffe45b0 <foobar+0xfffe4364>
 1a8:	00786469 	0x786469
 1ac:	003b2401 	0x3b2401
 1b0:	91020000 	lbu	v0,0(t0)
 1b4:	00e31004 	sllv	v0,v1,a3
 1b8:	24010000 	li	at,0
 1bc:	0000003b 	0x3b
 1c0:	10089102 	beq	zero,t0,fffe45cc <foobar+0xfffe4380>
 1c4:	000000e8 	0xe8
 1c8:	003b2401 	0x3b2401
 1cc:	91020000 	lbu	v0,0(t0)
 1d0:	0412000c 	0x412000c
 1d4:	000000d8 	0xd8
 1d8:	00fe010f 	0xfe010f
 1dc:	28010000 	slti	at,zero,0
 1e0:	0000b901 	0xb901
 1e4:	00010000 	sll	zero,at,0x0
 1e8:	00015c00 	sll	t3,at,0x10
 1ec:	00005600 	sll	t2,zero,0x18
 1f0:	00023a00 	sll	a3,v0,0x8
 1f4:	00741400 	0x741400
 1f8:	01d22801 	0x1d22801
 1fc:	91020000 	lbu	v0,0(t0)
 200:	00971004 	sllv	v0,s7,a0
 204:	28010000 	slti	at,zero,0
 208:	000000ae 	0xae
 20c:	10089102 	beq	zero,t0,fffe4618 <foobar+0xfffe43cc>
 210:	0000000a 	0xa
 214:	00b92801 	0xb92801
 218:	91020000 	lbu	v0,0(t0)
 21c:	00e3100c 	syscall	0x38c40
 220:	28010000 	slti	at,zero,0
 224:	0000023a 	0x23a
 228:	11109102 	beq	t0,s0,fffe4634 <foobar+0xfffe43e8>
 22c:	00746572 	0x746572
 230:	00b92901 	0xb92901
 234:	91020000 	lbu	v0,0(t0)
 238:	04120070 	0x4120070
 23c:	000000ae 	0xae
 240:	005f0113 	0x5f0113
 244:	2f010000 	sltiu	at,t8,0
 248:	00015c01 	0x15c01
 24c:	00024c00 	sll	t1,v0,0x10
 250:	00008100 	sll	s0,zero,0x4
 254:	0002a500 	sll	s4,v0,0x14
 258:	00741400 	0x741400
 25c:	01d22f01 	0x1d22f01
 260:	91020000 	lbu	v0,0(t0)
 264:	72731400 	0x72731400
 268:	2f010063 	sltiu	at,t8,99
 26c:	0000007d 	0x7d
 270:	14049102 	bne	zero,a0,fffe467c <foobar+0xfffe4430>
 274:	00786469 	0x786469
 278:	003b2f01 	0x3b2f01
 27c:	91020000 	lbu	v0,0(t0)
 280:	7a731408 	0x7a731408
 284:	3b2f0100 	xori	t7,t9,0x100
 288:	02000000 	0x2000000
 28c:	8c150c91 	lw	s5,3217(zero)
 290:	30000001 	andi	zero,zero,0x1
 294:	11000002 	beqz	t0,2a0 <.debug_info+0x2a0>
 298:	30010069 	andi	at,zero,0x69
 29c:	0000003b 	0x3b
 2a0:	00689102 	0x689102
 2a4:	cb011600 	lwc2	$1,5632(t8)
 2a8:	01000000 	0x1000000
 2ac:	00024c38 	0x24c38
 2b0:	00029c00 	sll	s3,v0,0x10
 2b4:	0000ac00 	sll	s5,zero,0x10
 2b8:	00761100 	0x761100
 2bc:	00b93901 	0xb93901
 2c0:	91020000 	lbu	v0,0(t0)
 2c4:	Address 0x00000000000002c4 is out of bounds.


Disassembly of section .debug_line:

00000000 <.debug_line>:
   0:	00000359 	0x359
   4:	03180002 	0x3180002
   8:	01010000 	0x1010000
   c:	000d0efb 	0xd0efb
  10:	01010101 	0x1010101
  14:	01000000 	0x1000000
  18:	2f010000 	sltiu	at,t8,0
  1c:	2f727375 	sltiu	s2,k1,29557
  20:	2f62696c 	sltiu	v0,k1,26988
  24:	2f636367 	sltiu	v1,k1,25447
  28:	7370696d 	0x7370696d
  2c:	6c2d6c65 	0x6c2d6c65
  30:	78756e69 	0x78756e69
  34:	756e672d 	jalx	5b99cb4 <foobar+0x5b99a68>
  38:	342e342f 	ori	t6,at,0x342f
  3c:	692f352e 	0x692f352e
  40:	756c636e 	jalx	5b18db8 <foobar+0x5b18b6c>
  44:	2f006564 	sltiu	zero,t8,25956
  48:	2f727375 	sltiu	s2,k1,29557
  4c:	6c636e69 	0x6c636e69
  50:	00656475 	0x656475
  54:	7273752f 	0x7273752f
  58:	636e692f 	0x636e692f
  5c:	6564756c 	0x6564756c
  60:	7469622f 	jalx	1a588bc <foobar+0x1a58670>
  64:	752f0073 	jalx	4bc01cc <foobar+0x4bbff80>
  68:	692f7273 	0x692f7273
  6c:	756c636e 	jalx	5b18db8 <foobar+0x5b18b6c>
  70:	732f6564 	0x732f6564
  74:	2f007379 	sltiu	zero,t8,29561
  78:	2f727375 	sltiu	s2,k1,29557
  7c:	6c636e69 	0x6c636e69
  80:	2f656475 	sltiu	a1,k1,25717
  84:	00756e67 	0x756e67
  88:	7273752f 	0x7273752f
  8c:	636e692f 	0x636e692f
  90:	6564756c 	0x6564756c
  94:	6e696c2f 	0x6e696c2f
  98:	2f007875 	sltiu	zero,t8,30837
  9c:	2f727375 	sltiu	s2,k1,29557
  a0:	6c636e69 	0x6c636e69
  a4:	2f656475 	sltiu	a1,k1,25717
  a8:	006d7361 	0x6d7361
  ac:	7273752f 	0x7273752f
  b0:	636e692f 	0x636e692f
  b4:	6564756c 	0x6564756c
  b8:	6d73612f 	0x6d73612f
  bc:	6e65672d 	0x6e65672d
  c0:	63697265 	0x63697265
  c4:	636e6900 	0x636e6900
  c8:	6564756c 	0x6564756c
  cc:	61740000 	0x61740000
  d0:	2e656c62 	sltiu	a1,s3,27746
  d4:	00000063 	0x63
  d8:	64747300 	0x64747300
  dc:	6c6f6f62 	0x6c6f6f62
  e0:	0100682e 	0x100682e
  e4:	74730000 	jalx	1cc0000 <foobar+0x1cbfdb4>
  e8:	62696c64 	0x62696c64
  ec:	0200682e 	0x200682e
  f0:	65660000 	0x65660000
  f4:	72757461 	0x72757461
  f8:	682e7365 	0x682e7365
  fc:	00000200 	sll	zero,zero,0x8
 100:	64657270 	0x64657270
 104:	2e736665 	sltiu	s3,s3,26213
 108:	00030068 	0x30068
 10c:	65646300 	0x65646300
 110:	682e7366 	0x682e7366
 114:	00000400 	sll	zero,zero,0x10
 118:	64726f77 	0x64726f77
 11c:	657a6973 	0x657a6973
 120:	0300682e 	0x300682e
 124:	74730000 	jalx	1cc0000 <foobar+0x1cbfdb4>
 128:	2e736275 	sltiu	s3,s3,25205
 12c:	00050068 	0x50068
 130:	64747300 	0x64747300
 134:	2e666564 	sltiu	a2,s3,25956
 138:	00010068 	0x10068
 13c:	70797400 	0x70797400
 140:	682e7365 	0x682e7365
 144:	00000400 	sll	zero,zero,0x10
 148:	65707974 	0x65707974
 14c:	00682e73 	0x682e73
 150:	74000003 	jalx	c <.debug_line+0xc>
 154:	73657079 	0x73657079
 158:	73657a69 	0x73657a69
 15c:	0300682e 	0x300682e
 160:	69740000 	0x69740000
 164:	682e656d 	0x682e656d
 168:	00000200 	sll	zero,zero,0x8
 16c:	69646e65 	0x69646e65
 170:	682e6e61 	0x682e6e61
 174:	00000200 	sll	zero,zero,0x8
 178:	69646e65 	0x69646e65
 17c:	682e6e61 	0x682e6e61
 180:	00000300 	sll	zero,zero,0xc
 184:	65747962 	0x65747962
 188:	70617773 	0x70617773
 18c:	0300682e 	0x300682e
 190:	65730000 	0x65730000
 194:	7463656c 	jalx	18d95b0 <foobar+0x18d9364>
 198:	0400682e 	bltz	zero,1a254 <foobar+0x1a008>
 19c:	65730000 	0x65730000
 1a0:	7463656c 	jalx	18d95b0 <foobar+0x18d9364>
 1a4:	0300682e 	0x300682e
 1a8:	69730000 	0x69730000
 1ac:	74657367 	jalx	195cd9c <foobar+0x195cb50>
 1b0:	0300682e 	0x300682e
 1b4:	69740000 	0x69740000
 1b8:	682e656d 	0x682e656d
 1bc:	00000300 	sll	zero,zero,0xc
 1c0:	6d737973 	0x6d737973
 1c4:	6f726361 	0x6f726361
 1c8:	00682e73 	0x682e73
 1cc:	70000004 	0x70000004
 1d0:	65726874 	0x65726874
 1d4:	79746461 	0x79746461
 1d8:	2e736570 	sltiu	s3,s3,25968
 1dc:	00030068 	0x30068
 1e0:	6c6c6100 	0x6c6c6100
 1e4:	2e61636f 	sltiu	at,s3,25455
 1e8:	00020068 	0x20068
 1ec:	72747300 	0x72747300
 1f0:	2e676e69 	sltiu	a3,s3,28265
 1f4:	00020068 	0x20068
 1f8:	6f6c7800 	0x6f6c7800
 1fc:	656c6163 	0x656c6163
 200:	0200682e 	0x200682e
 204:	74730000 	jalx	1cc0000 <foobar+0x1cbfdb4>
 208:	2e6f6964 	sltiu	t7,s3,26980
 20c:	00020068 	0x20068
 210:	62696c00 	0x62696c00
 214:	682e6f69 	0x682e6f69
 218:	00000200 	sll	zero,zero,0x8
 21c:	635f475f 	0x635f475f
 220:	69666e6f 	0x69666e6f
 224:	00682e67 	0x682e67
 228:	77000002 	jalx	c000008 <foobar+0xbfffdbc>
 22c:	72616863 	0x72616863
 230:	0200682e 	0x200682e
 234:	74730000 	jalx	1cc0000 <foobar+0x1cbfdb4>
 238:	67726164 	0x67726164
 23c:	0100682e 	0x100682e
 240:	74730000 	jalx	1cc0000 <foobar+0x1cbfdb4>
 244:	5f6f6964 	0x5f6f6964
 248:	2e6d696c 	sltiu	t5,s3,26988
 24c:	00030068 	0x30068
 250:	73797300 	0x73797300
 254:	7272655f 	0x7272655f
 258:	7473696c 	jalx	1cda5b0 <foobar+0x1cda364>
 25c:	0300682e 	0x300682e
 260:	72650000 	0x72650000
 264:	2e6f6e72 	sltiu	t7,s3,28274
 268:	00020068 	0x20068
 26c:	72726500 	0x72726500
 270:	682e6f6e 	0x682e6f6e
 274:	00000300 	sll	zero,zero,0xc
 278:	6e727265 	0x6e727265
 27c:	00682e6f 	0x682e6f
 280:	65000006 	0x65000006
 284:	6f6e7272 	0x6f6e7272
 288:	0700682e 	bltz	t8,1a344 <foobar+0x1a0f8>
 28c:	72650000 	0x72650000
 290:	2d6f6e72 	sltiu	t7,t3,28274
 294:	65736162 	0x65736162
 298:	0800682e 	j	1a0b8 <foobar+0x19e6c>
 29c:	72660000 	0x72660000
 2a0:	2e656d61 	sltiu	a1,s3,28001
 2a4:	00090068 	0x90068
 2a8:	63616d00 	0x63616d00
 2ac:	656e6968 	0x656e6968
 2b0:	0900682e 	j	401a0b8 <foobar+0x4019e6c>
 2b4:	73610000 	0x73610000
 2b8:	74726573 	jalx	1c995cc <foobar+0x1c99380>
 2bc:	0200682e 	0x200682e
 2c0:	706f0000 	0x706f0000
 2c4:	6e617265 	0x6e617265
 2c8:	00682e64 	0x682e64
 2cc:	73000009 	0x73000009
 2d0:	6e696474 	0x6e696474
 2d4:	00682e74 	0x682e74
 2d8:	77000002 	jalx	c000008 <foobar+0xbfffdbc>
 2dc:	72616863 	0x72616863
 2e0:	0300682e 	0x300682e
 2e4:	6d650000 	0x6d650000
 2e8:	65747469 	0x65747469
 2ec:	00682e72 	0x682e72
 2f0:	65000009 	0x65000009
 2f4:	682e666c 	0x682e666c
 2f8:	00000900 	sll	at,zero,0x4
 2fc:	6a626f6c 	0x6a626f6c
 300:	2e746365 	sltiu	s4,s3,25445
 304:	00090068 	0x90068
 308:	73696c00 	0x73696c00
 30c:	00682e74 	0x682e74
 310:	6c000009 	0x6c000009
 314:	6f63706f 	0x6f63706f
 318:	2e736564 	sltiu	s3,s3,25956
 31c:	00090068 	0x90068
 320:	05000000 	bltz	t0,324 <.debug_line+0x324>
 324:	00000002 	srl	zero,zero,0x0
 328:	01170300 	0x1170300
 32c:	08132402 	j	4c9008 <foobar+0x4c8dbc>
 330:	bbe7083d 	swr	a3,2109(ra)
 334:	4b142802 	c2	0x1142802
 338:	ad087708 	sw	t0,30472(t0)
 33c:	08132802 	j	4ca008 <foobar+0x4c9dbc>
 340:	08af083e 	j	2bc20f8 <foobar+0x2bc1eac>
 344:	3e08bbe5 	0x3e08bbe5
 348:	bc133002 	0xbc133002
 34c:	02107002 	0x2107002
 350:	ae081828 	sw	t0,6184(s0)
 354:	e50883f3 	swc1	$f8,-31757(t0)
 358:	01001802 	0x1001802
 35c:	Address 0x000000000000035c is out of bounds.


Disassembly of section .debug_macinfo:

00000000 <.debug_macinfo>:
       0:	01010003 	0x1010003
       4:	535f5f00 	0x535f5f00
       8:	5f434454 	0x5f434454
       c:	0031205f 	0x31205f
      10:	5f5f0001 	0x5f5f0001
      14:	43445453 	c0	0x1445453
      18:	5245565f 	0x5245565f
      1c:	4e4f4953 	c3	0x4f4953
      20:	31205f5f 	andi	zero,t1,0x5f5f
      24:	30393939 	andi	t9,at,0x3939
      28:	01004c31 	0x1004c31
      2c:	535f5f00 	0x535f5f00
      30:	5f434454 	0x5f434454
      34:	54534f48 	0x54534f48
      38:	5f5f4445 	0x5f5f4445
      3c:	01003120 	0x1003120
      40:	475f5f00 	c1	0x15f5f00
      44:	5f43554e 	0x5f43554e
      48:	0034205f 	0x34205f
      4c:	5f5f0001 	0x5f5f0001
      50:	43554e47 	c0	0x1554e47
      54:	4e494d5f 	c3	0x494d5f
      58:	5f5f524f 	0x5f5f524f
      5c:	01003420 	0x1003420
      60:	475f5f00 	c1	0x15f5f00
      64:	5f43554e 	0x5f43554e
      68:	43544150 	c0	0x1544150
      6c:	56454c48 	0x56454c48
      70:	5f5f4c45 	0x5f5f4c45
      74:	01003520 	0x1003520
      78:	535f5f00 	0x535f5f00
      7c:	5f455a49 	0x5f455a49
      80:	45505954 	0x45505954
      84:	75205f5f 	jalx	4817d7c <foobar+0x4817b30>
      88:	6769736e 	0x6769736e
      8c:	2064656e 	addi	a0,v1,25966
      90:	00746e69 	0x746e69
      94:	5f5f0001 	0x5f5f0001
      98:	44525450 	0x44525450
      9c:	5f464649 	0x5f464649
      a0:	45505954 	0x45505954
      a4:	69205f5f 	0x69205f5f
      a8:	0100746e 	0x100746e
      ac:	575f5f00 	0x575f5f00
      b0:	52414843 	0x52414843
      b4:	5059545f 	0x5059545f
      b8:	205f5f45 	addi	ra,v0,24389
      bc:	00746e69 	0x746e69
      c0:	5f5f0001 	0x5f5f0001
      c4:	544e4957 	0x544e4957
      c8:	5059545f 	0x5059545f
      cc:	205f5f45 	addi	ra,v0,24389
      d0:	69736e75 	0x69736e75
      d4:	64656e67 	0x64656e67
      d8:	746e6920 	jalx	1b9a480 <foobar+0x1b9a234>
      dc:	5f000100 	0x5f000100
      e0:	544e495f 	0x544e495f
      e4:	5f58414d 	0x5f58414d
      e8:	45505954 	0x45505954
      ec:	6c205f5f 	0x6c205f5f
      f0:	20676e6f 	addi	a3,v1,28271
      f4:	676e6f6c 	0x676e6f6c
      f8:	746e6920 	jalx	1b9a480 <foobar+0x1b9a234>
      fc:	5f000100 	0x5f000100
     100:	4e49555f 	c3	0x49555f
     104:	58414d54 	0x58414d54
     108:	5059545f 	0x5059545f
     10c:	205f5f45 	addi	ra,v0,24389
     110:	676e6f6c 	0x676e6f6c
     114:	6e6f6c20 	0x6e6f6c20
     118:	6e752067 	0x6e752067
     11c:	6e676973 	0x6e676973
     120:	69206465 	0x69206465
     124:	0100746e 	0x100746e
     128:	435f5f00 	c0	0x15f5f00
     12c:	31524148 	andi	s2,t2,0x4148
     130:	59545f36 	0x59545f36
     134:	5f5f4550 	0x5f5f4550
     138:	6f687320 	0x6f687320
     13c:	75207472 	jalx	481d1c8 <foobar+0x481cf7c>
     140:	6769736e 	0x6769736e
     144:	2064656e 	addi	a0,v1,25966
     148:	00746e69 	0x746e69
     14c:	5f5f0001 	0x5f5f0001
     150:	52414843 	0x52414843
     154:	545f3233 	0x545f3233
     158:	5f455059 	0x5f455059
     15c:	6e75205f 	0x6e75205f
     160:	6e676973 	0x6e676973
     164:	69206465 	0x69206465
     168:	0100746e 	0x100746e
     16c:	475f5f00 	c1	0x15f5f00
     170:	415f5858 	0x415f5858
     174:	565f4942 	0x565f4942
     178:	49535245 	0x49535245
     17c:	31204e4f 	andi	zero,t1,0x4e4f
     180:	00323030 	0x323030
     184:	5f5f0001 	0x5f5f0001
     188:	41484353 	0x41484353
     18c:	414d5f52 	0x414d5f52
     190:	205f5f58 	addi	ra,v0,24408
     194:	00373231 	0x373231
     198:	5f5f0001 	0x5f5f0001
     19c:	54524853 	0x54524853
     1a0:	58414d5f 	0x58414d5f
     1a4:	33205f5f 	andi	zero,t9,0x5f5f
     1a8:	37363732 	ori	s6,t9,0x3732
     1ac:	5f000100 	0x5f000100
     1b0:	544e495f 	0x544e495f
     1b4:	58414d5f 	0x58414d5f
     1b8:	32205f5f 	andi	zero,s1,0x5f5f
     1bc:	34373431 	ori	s7,at,0x3431
     1c0:	34363338 	ori	s6,at,0x3338
     1c4:	00010037 	0x10037
     1c8:	4f4c5f5f 	c3	0x14c5f5f
     1cc:	4d5f474e 	0x4d5f474e
     1d0:	5f5f5841 	0x5f5f5841
     1d4:	34313220 	ori	s1,at,0x3220
     1d8:	33383437 	andi	t8,t9,0x3437
     1dc:	4c373436 	0x4c373436
     1e0:	5f000100 	0x5f000100
     1e4:	4e4f4c5f 	c3	0x4f4c5f
     1e8:	4f4c5f47 	c3	0x14c5f47
     1ec:	4d5f474e 	0x4d5f474e
     1f0:	5f5f5841 	0x5f5f5841
     1f4:	32323920 	andi	s2,s1,0x3920
     1f8:	32373333 	andi	s7,s1,0x3333
     1fc:	38363330 	xori	s6,at,0x3330
     200:	37373435 	ori	s7,t9,0x3435
     204:	37303835 	ori	s0,t9,0x3835
     208:	01004c4c 	syscall	0x40131
     20c:	575f5f00 	0x575f5f00
     210:	52414843 	0x52414843
     214:	58414d5f 	0x58414d5f
     218:	32205f5f 	andi	zero,s1,0x5f5f
     21c:	34373431 	ori	s7,at,0x3431
     220:	34363338 	ori	s6,at,0x3338
     224:	00010037 	0x10037
     228:	48435f5f 	0x48435f5f
     22c:	425f5241 	c0	0x5f5241
     230:	5f5f5449 	0x5f5f5449
     234:	01003820 	add	a3,t0,zero
     238:	495f5f00 	0x495f5f00
     23c:	414d544e 	0x414d544e
     240:	414d5f58 	0x414d5f58
     244:	205f5f58 	addi	ra,v0,24408
     248:	33323239 	andi	s2,t9,0x3239
     24c:	30323733 	andi	s2,at,0x3733
     250:	35383633 	ori	t8,t1,0x3633
     254:	35373734 	ori	s7,t1,0x3734
     258:	4c373038 	0x4c373038
     25c:	0001004c 	syscall	0x401
     260:	4c465f5f 	0x4c465f5f
     264:	56455f54 	0x56455f54
     268:	4d5f4c41 	0x4d5f4c41
     26c:	4f485445 	c3	0x1485445
     270:	205f5f44 	addi	ra,v0,24388
     274:	00010030 	0x10030
     278:	45445f5f 	0x45445f5f
     27c:	56455f43 	0x56455f43
     280:	4d5f4c41 	0x4d5f4c41
     284:	4f485445 	c3	0x1485445
     288:	205f5f44 	addi	ra,v0,24388
     28c:	00010032 	0x10032
     290:	4c465f5f 	0x4c465f5f
     294:	41525f54 	0x41525f54
     298:	5f584944 	0x5f584944
     29c:	0032205f 	0x32205f
     2a0:	5f5f0001 	0x5f5f0001
     2a4:	5f544c46 	0x5f544c46
     2a8:	544e414d 	0x544e414d
     2ac:	4749445f 	c1	0x149445f
     2b0:	32205f5f 	andi	zero,s1,0x5f5f
     2b4:	00010034 	0x10034
     2b8:	4c465f5f 	0x4c465f5f
     2bc:	49445f54 	0x49445f54
     2c0:	205f5f47 	addi	ra,v0,24391
     2c4:	00010036 	0x10036
     2c8:	4c465f5f 	0x4c465f5f
     2cc:	494d5f54 	0x494d5f54
     2d0:	58455f4e 	0x58455f4e
     2d4:	205f5f50 	addi	ra,v0,24400
     2d8:	32312d28 	andi	s1,s1,0x2d28
     2dc:	01002935 	0x1002935
     2e0:	465f5f00 	c1	0x5f5f00
     2e4:	4d5f544c 	0x4d5f544c
     2e8:	315f4e49 	andi	ra,t2,0x4e49
     2ec:	58455f30 	0x58455f30
     2f0:	205f5f50 	addi	ra,v0,24400
     2f4:	37332d28 	ori	s3,t9,0x2d28
     2f8:	00010029 	0x10029
     2fc:	4c465f5f 	0x4c465f5f
     300:	414d5f54 	0x414d5f54
     304:	58455f58 	0x58455f58
     308:	205f5f50 	addi	ra,v0,24400
     30c:	00383231 	0x383231
     310:	5f5f0001 	0x5f5f0001
     314:	5f544c46 	0x5f544c46
     318:	5f58414d 	0x5f58414d
     31c:	455f3031 	0x455f3031
     320:	5f5f5058 	0x5f5f5058
     324:	00383320 	0x383320
     328:	5f5f0001 	0x5f5f0001
     32c:	5f544c46 	0x5f544c46
     330:	5f58414d 	0x5f58414d
     334:	2e33205f 	sltiu	s3,s1,8287
     338:	38323034 	xori	s2,at,0x3034
     33c:	37343332 	ori	s4,t9,0x3332
     340:	38332b65 	xori	s3,at,0x2b65
     344:	00010046 	0x10046
     348:	4c465f5f 	0x4c465f5f
     34c:	494d5f54 	0x494d5f54
     350:	205f5f4e 	addi	ra,v0,24398
     354:	37312e31 	ori	s1,t9,0x2e31
     358:	34393435 	ori	t9,at,0x3435
     35c:	2d653533 	sltiu	a1,t3,13619
     360:	00463833 	0x463833
     364:	5f5f0001 	0x5f5f0001
     368:	5f544c46 	0x5f544c46
     36c:	49535045 	0x49535045
     370:	5f4e4f4c 	0x5f4e4f4c
     374:	2e31205f 	sltiu	s1,s1,8287
     378:	30323931 	andi	s2,at,0x3931
     37c:	30393239 	andi	t9,at,0x3239
     380:	46372d65 	c1	0x372d65
     384:	5f000100 	0x5f000100
     388:	544c465f 	0x544c465f
     38c:	4e45445f 	c3	0x45445f
     390:	5f4d524f 	0x5f4d524f
     394:	5f4e494d 	0x5f4e494d
     398:	2e31205f 	sltiu	s1,s1,8287
     39c:	32313034 	andi	s1,s1,0x3034
     3a0:	36343839 	ori	s4,s1,0x3839
     3a4:	35342d65 	ori	s4,t1,0x2d65
     3a8:	00010046 	0x10046
     3ac:	4c465f5f 	0x4c465f5f
     3b0:	41485f54 	0x41485f54
     3b4:	45445f53 	0x45445f53
     3b8:	4d524f4e 	0x4d524f4e
     3bc:	31205f5f 	andi	zero,t1,0x5f5f
     3c0:	5f000100 	0x5f000100
     3c4:	544c465f 	0x544c465f
     3c8:	5341485f 	0x5341485f
     3cc:	464e495f 	c1	0x4e495f
     3d0:	54494e49 	0x54494e49
     3d4:	205f5f59 	addi	ra,v0,24409
     3d8:	00010031 	0x10031
     3dc:	4c465f5f 	0x4c465f5f
     3e0:	41485f54 	0x41485f54
     3e4:	55515f53 	0x55515f53
     3e8:	5f544549 	0x5f544549
     3ec:	5f4e414e 	0x5f4e414e
     3f0:	0031205f 	0x31205f
     3f4:	5f5f0001 	0x5f5f0001
     3f8:	5f4c4244 	0x5f4c4244
     3fc:	544e414d 	0x544e414d
     400:	4749445f 	c1	0x149445f
     404:	35205f5f 	ori	zero,t1,0x5f5f
     408:	00010033 	0x10033
     40c:	42445f5f 	c0	0x445f5f
     410:	49445f4c 	0x49445f4c
     414:	205f5f47 	addi	ra,v0,24391
     418:	01003531 	0x1003531
     41c:	445f5f00 	0x445f5f00
     420:	4d5f4c42 	0x4d5f4c42
     424:	455f4e49 	0x455f4e49
     428:	5f5f5058 	0x5f5f5058
     42c:	312d2820 	andi	t5,t1,0x2820
     430:	29313230 	slti	s1,t1,12848
     434:	5f000100 	0x5f000100
     438:	4c42445f 	0x4c42445f
     43c:	4e494d5f 	c3	0x494d5f
     440:	5f30315f 	0x5f30315f
     444:	5f505845 	0x5f505845
     448:	2d28205f 	sltiu	t0,t1,8287
     44c:	29373033 	slti	s7,t1,12339
     450:	5f000100 	0x5f000100
     454:	4c42445f 	0x4c42445f
     458:	58414d5f 	0x58414d5f
     45c:	5058455f 	0x5058455f
     460:	31205f5f 	andi	zero,t1,0x5f5f
     464:	00343230 	0x343230
     468:	5f5f0001 	0x5f5f0001
     46c:	5f4c4244 	0x5f4c4244
     470:	5f58414d 	0x5f58414d
     474:	455f3031 	0x455f3031
     478:	5f5f5058 	0x5f5f5058
     47c:	38303320 	xori	s0,at,0x3320
     480:	5f000100 	0x5f000100
     484:	4c42445f 	0x4c42445f
     488:	58414d5f 	0x58414d5f
     48c:	31205f5f 	andi	zero,t1,0x5f5f
     490:	3739372e 	ori	t9,t9,0x372e
     494:	31333936 	andi	s3,t1,0x3936
     498:	36383433 	ori	t8,s1,0x3433
     49c:	35313332 	ori	s1,t1,0x3332
     4a0:	332b6537 	andi	t3,t9,0x6537
     4a4:	01003830 	0x1003830
     4a8:	445f5f00 	0x445f5f00
     4ac:	4d5f4c42 	0x4d5f4c42
     4b0:	5f5f4e49 	0x5f5f4e49
     4b4:	322e3220 	andi	t6,s1,0x3220
     4b8:	37303532 	ori	s0,t9,0x3532
     4bc:	38353833 	xori	s5,at,0x3833
     4c0:	32373035 	andi	s7,s1,0x3035
     4c4:	65343130 	0x65343130
     4c8:	3830332d 	xori	s0,at,0x332d
     4cc:	5f000100 	0x5f000100
     4d0:	4c42445f 	0x4c42445f
     4d4:	5350455f 	0x5350455f
     4d8:	4e4f4c49 	c3	0x4f4c49
     4dc:	32205f5f 	andi	zero,s1,0x5f5f
     4e0:	3032322e 	andi	s2,at,0x322e
     4e4:	30363434 	andi	s6,at,0x3434
     4e8:	35323934 	ori	s2,t1,0x3934
     4ec:	33313330 	andi	s1,t9,0x3330
     4f0:	312d6531 	andi	t5,t1,0x6531
     4f4:	00010036 	0x10036
     4f8:	42445f5f 	c0	0x445f5f
     4fc:	45445f4c 	0x45445f4c
     500:	4d524f4e 	0x4d524f4e
     504:	4e494d5f 	c3	0x494d5f
     508:	34205f5f 	ori	zero,at,0x5f5f
     50c:	3034392e 	andi	s4,at,0x392e
     510:	34363536 	ori	s6,at,0x3536
     514:	31343835 	andi	s4,t1,0x3835
     518:	35363432 	ori	s6,t1,0x3432
     51c:	332d6534 	andi	t5,t9,0x6534
     520:	01003432 	0x1003432
     524:	445f5f00 	0x445f5f00
     528:	485f4c42 	0x485f4c42
     52c:	445f5341 	0x445f5341
     530:	524f4e45 	0x524f4e45
     534:	205f5f4d 	addi	ra,v0,24397
     538:	00010031 	0x10031
     53c:	42445f5f 	c0	0x445f5f
     540:	41485f4c 	0x41485f4c
     544:	4e495f53 	c3	0x495f53
     548:	494e4946 	0x494e4946
     54c:	5f5f5954 	0x5f5f5954
     550:	01003120 	0x1003120
     554:	445f5f00 	0x445f5f00
     558:	485f4c42 	0x485f4c42
     55c:	515f5341 	0x515f5341
     560:	54454955 	0x54454955
     564:	4e414e5f 	c3	0x414e5f
     568:	31205f5f 	andi	zero,t1,0x5f5f
     56c:	5f000100 	0x5f000100
     570:	42444c5f 	c0	0x444c5f
     574:	414d5f4c 	0x414d5f4c
     578:	445f544e 	0x445f544e
     57c:	5f5f4749 	0x5f5f4749
     580:	00333520 	0x333520
     584:	5f5f0001 	0x5f5f0001
     588:	4c42444c 	0x4c42444c
     58c:	4749445f 	c1	0x149445f
     590:	31205f5f 	andi	zero,t1,0x5f5f
     594:	00010035 	0x10035
     598:	444c5f5f 	0x444c5f5f
     59c:	4d5f4c42 	0x4d5f4c42
     5a0:	455f4e49 	0x455f4e49
     5a4:	5f5f5058 	0x5f5f5058
     5a8:	312d2820 	andi	t5,t1,0x2820
     5ac:	29313230 	slti	s1,t1,12848
     5b0:	5f000100 	0x5f000100
     5b4:	42444c5f 	c0	0x444c5f
     5b8:	494d5f4c 	0x494d5f4c
     5bc:	30315f4e 	andi	s1,at,0x5f4e
     5c0:	5058455f 	0x5058455f
     5c4:	28205f5f 	slti	zero,at,24415
     5c8:	3730332d 	ori	s0,t9,0x332d
     5cc:	00010029 	0x10029
     5d0:	444c5f5f 	0x444c5f5f
     5d4:	4d5f4c42 	0x4d5f4c42
     5d8:	455f5841 	0x455f5841
     5dc:	5f5f5058 	0x5f5f5058
     5e0:	32303120 	andi	s0,s1,0x3120
     5e4:	00010034 	0x10034
     5e8:	444c5f5f 	0x444c5f5f
     5ec:	4d5f4c42 	0x4d5f4c42
     5f0:	315f5841 	andi	ra,t2,0x5841
     5f4:	58455f30 	0x58455f30
     5f8:	205f5f50 	addi	ra,v0,24400
     5fc:	00383033 	0x383033
     600:	5f5f0001 	0x5f5f0001
     604:	49434544 	0x49434544
     608:	5f4c414d 	0x5f4c414d
     60c:	5f474944 	0x5f474944
     610:	3731205f 	ori	s1,t9,0x205f
     614:	5f000100 	0x5f000100
     618:	42444c5f 	c0	0x444c5f
     61c:	414d5f4c 	0x414d5f4c
     620:	205f5f58 	addi	ra,v0,24408
     624:	39372e31 	xori	s7,t1,0x2e31
     628:	33393637 	andi	t9,t9,0x3637
     62c:	38343331 	xori	s4,at,0x3331
     630:	31333236 	andi	s3,t1,0x3236
     634:	2b653735 	slti	a1,k1,14133
     638:	4c383033 	0x4c383033
     63c:	5f000100 	0x5f000100
     640:	42444c5f 	c0	0x444c5f
     644:	494d5f4c 	0x494d5f4c
     648:	205f5f4e 	addi	ra,v0,24398
     64c:	32322e32 	andi	s2,s1,0x2e32
     650:	33373035 	andi	s7,t9,0x3035
     654:	35383538 	ori	t8,t1,0x3538
     658:	30323730 	andi	s2,at,0x3730
     65c:	2d653431 	sltiu	a1,t3,13361
     660:	4c383033 	0x4c383033
     664:	5f000100 	0x5f000100
     668:	42444c5f 	c0	0x444c5f
     66c:	50455f4c 	0x50455f4c
     670:	4f4c4953 	c3	0x14c4953
     674:	205f5f4e 	addi	ra,v0,24398
     678:	32322e32 	andi	s2,s1,0x2e32
     67c:	36343430 	ori	s4,s1,0x3430
     680:	32393430 	andi	t9,s1,0x3430
     684:	31333035 	andi	s3,t1,0x3035
     688:	2d653133 	sltiu	a1,t3,12595
     68c:	004c3631 	0x4c3631
     690:	5f5f0001 	0x5f5f0001
     694:	4c42444c 	0x4c42444c
     698:	4e45445f 	c3	0x45445f
     69c:	5f4d524f 	0x5f4d524f
     6a0:	5f4e494d 	0x5f4e494d
     6a4:	2e34205f 	sltiu	s4,s1,8287
     6a8:	36303439 	ori	s0,s1,0x3439
     6ac:	35343635 	ori	s4,t1,0x3635
     6b0:	32313438 	andi	s1,s1,0x3438
     6b4:	34353634 	ori	s5,at,0x3634
     6b8:	32332d65 	andi	s3,s1,0x2d65
     6bc:	01004c34 	0x1004c34
     6c0:	4c5f5f00 	0x4c5f5f00
     6c4:	5f4c4244 	0x5f4c4244
     6c8:	5f534148 	0x5f534148
     6cc:	4f4e4544 	c3	0x14e4544
     6d0:	5f5f4d52 	0x5f5f4d52
     6d4:	01003120 	0x1003120
     6d8:	4c5f5f00 	0x4c5f5f00
     6dc:	5f4c4244 	0x5f4c4244
     6e0:	5f534148 	0x5f534148
     6e4:	49464e49 	0x49464e49
     6e8:	5954494e 	0x5954494e
     6ec:	31205f5f 	andi	zero,t1,0x5f5f
     6f0:	5f000100 	0x5f000100
     6f4:	42444c5f 	c0	0x444c5f
     6f8:	41485f4c 	0x41485f4c
     6fc:	55515f53 	0x55515f53
     700:	5f544549 	0x5f544549
     704:	5f4e414e 	0x5f4e414e
     708:	0031205f 	0x31205f
     70c:	5f5f0001 	0x5f5f0001
     710:	33434544 	andi	v1,k0,0x4544
     714:	414d5f32 	0x414d5f32
     718:	445f544e 	0x445f544e
     71c:	5f5f4749 	0x5f5f4749
     720:	01003720 	0x1003720
     724:	445f5f00 	0x445f5f00
     728:	32334345 	andi	s3,s1,0x4345
     72c:	4e494d5f 	c3	0x494d5f
     730:	5058455f 	0x5058455f
     734:	28205f5f 	slti	zero,at,24415
     738:	2934392d 	slti	s4,t1,14637
     73c:	5f000100 	0x5f000100
     740:	4345445f 	c0	0x145445f
     744:	4d5f3233 	0x4d5f3233
     748:	455f5841 	0x455f5841
     74c:	5f5f5058 	0x5f5f5058
     750:	00373920 	0x373920
     754:	5f5f0001 	0x5f5f0001
     758:	33434544 	andi	v1,k0,0x4544
     75c:	494d5f32 	0x494d5f32
     760:	205f5f4e 	addi	ra,v0,24398
     764:	392d4531 	xori	t5,t1,0x4531
     768:	00464435 	0x464435
     76c:	5f5f0001 	0x5f5f0001
     770:	33434544 	andi	v1,k0,0x4544
     774:	414d5f32 	0x414d5f32
     778:	205f5f58 	addi	ra,v0,24408
     77c:	39392e39 	xori	t9,t1,0x2e39
     780:	39393939 	xori	t9,t1,0x3939
     784:	44363945 	0x44363945
     788:	00010046 	0x10046
     78c:	45445f5f 	0x45445f5f
     790:	5f323343 	0x5f323343
     794:	49535045 	0x49535045
     798:	5f4e4f4c 	0x5f4e4f4c
     79c:	4531205f 	0x4531205f
     7a0:	4644362d 	c1	0x44362d
     7a4:	5f000100 	0x5f000100
     7a8:	4345445f 	c0	0x145445f
     7ac:	535f3233 	0x535f3233
     7b0:	4f4e4255 	c3	0x14e4255
     7b4:	4c414d52 	0x4c414d52
     7b8:	4e494d5f 	c3	0x494d5f
     7bc:	30205f5f 	andi	zero,at,0x5f5f
     7c0:	3030302e 	andi	s0,at,0x302e
     7c4:	45313030 	0x45313030
     7c8:	4435392d 	0x4435392d
     7cc:	00010046 	0x10046
     7d0:	45445f5f 	0x45445f5f
     7d4:	5f343643 	0x5f343643
     7d8:	544e414d 	0x544e414d
     7dc:	4749445f 	c1	0x149445f
     7e0:	31205f5f 	andi	zero,t1,0x5f5f
     7e4:	00010036 	0x10036
     7e8:	45445f5f 	0x45445f5f
     7ec:	5f343643 	0x5f343643
     7f0:	5f4e494d 	0x5f4e494d
     7f4:	5f505845 	0x5f505845
     7f8:	2d28205f 	sltiu	t0,t1,8287
     7fc:	29323833 	slti	s2,t1,14387
     800:	5f000100 	0x5f000100
     804:	4345445f 	c0	0x145445f
     808:	4d5f3436 	0x4d5f3436
     80c:	455f5841 	0x455f5841
     810:	5f5f5058 	0x5f5f5058
     814:	35383320 	ori	t8,t1,0x3320
     818:	5f000100 	0x5f000100
     81c:	4345445f 	c0	0x145445f
     820:	4d5f3436 	0x4d5f3436
     824:	5f5f4e49 	0x5f5f4e49
     828:	2d453120 	sltiu	a1,t2,12576
     82c:	44333833 	0x44333833
     830:	00010044 	0x10044
     834:	45445f5f 	0x45445f5f
     838:	5f343643 	0x5f343643
     83c:	5f58414d 	0x5f58414d
     840:	2e39205f 	sltiu	t9,s1,8287
     844:	39393939 	xori	t9,t1,0x3939
     848:	39393939 	xori	t9,t1,0x3939
     84c:	39393939 	xori	t9,t1,0x3939
     850:	45393939 	0x45393939
     854:	44343833 	0x44343833
     858:	00010044 	0x10044
     85c:	45445f5f 	0x45445f5f
     860:	5f343643 	0x5f343643
     864:	49535045 	0x49535045
     868:	5f4e4f4c 	0x5f4e4f4c
     86c:	4531205f 	0x4531205f
     870:	4435312d 	0x4435312d
     874:	00010044 	0x10044
     878:	45445f5f 	0x45445f5f
     87c:	5f343643 	0x5f343643
     880:	4e425553 	c3	0x425553
     884:	414d524f 	0x414d524f
     888:	494d5f4c 	0x494d5f4c
     88c:	205f5f4e 	addi	ra,v0,24398
     890:	30302e30 	andi	s0,at,0x2e30
     894:	30303030 	andi	s0,at,0x3030
     898:	30303030 	andi	s0,at,0x3030
     89c:	30303030 	andi	s0,at,0x3030
     8a0:	332d4531 	andi	t5,t9,0x4531
     8a4:	44443338 	0x44443338
     8a8:	5f000100 	0x5f000100
     8ac:	4345445f 	c0	0x145445f
     8b0:	5f383231 	0x5f383231
     8b4:	544e414d 	0x544e414d
     8b8:	4749445f 	c1	0x149445f
     8bc:	33205f5f 	andi	zero,t9,0x5f5f
     8c0:	00010034 	0x10034
     8c4:	45445f5f 	0x45445f5f
     8c8:	38323143 	xori	s2,at,0x3143
     8cc:	4e494d5f 	c3	0x494d5f
     8d0:	5058455f 	0x5058455f
     8d4:	28205f5f 	slti	zero,at,24415
     8d8:	3431362d 	ori	s1,at,0x362d
     8dc:	01002932 	0x1002932
     8e0:	445f5f00 	0x445f5f00
     8e4:	32314345 	andi	s1,s1,0x4345
     8e8:	414d5f38 	0x414d5f38
     8ec:	58455f58 	0x58455f58
     8f0:	205f5f50 	addi	ra,v0,24400
     8f4:	35343136 	ori	s4,t1,0x3136
     8f8:	5f000100 	0x5f000100
     8fc:	4345445f 	c0	0x145445f
     900:	5f383231 	0x5f383231
     904:	5f4e494d 	0x5f4e494d
     908:	4531205f 	0x4531205f
     90c:	3431362d 	ori	s1,at,0x362d
     910:	004c4433 	0x4c4433
     914:	5f5f0001 	0x5f5f0001
     918:	31434544 	andi	v1,t2,0x4544
     91c:	4d5f3832 	0x4d5f3832
     920:	5f5f5841 	0x5f5f5841
     924:	392e3920 	xori	t6,t1,0x3920
     928:	39393939 	xori	t9,t1,0x3939
     92c:	39393939 	xori	t9,t1,0x3939
     930:	39393939 	xori	t9,t1,0x3939
     934:	39393939 	xori	t9,t1,0x3939
     938:	39393939 	xori	t9,t1,0x3939
     93c:	39393939 	xori	t9,t1,0x3939
     940:	39393939 	xori	t9,t1,0x3939
     944:	39393939 	xori	t9,t1,0x3939
     948:	34313645 	ori	s1,at,0x3645
     94c:	004c4434 	0x4c4434
     950:	5f5f0001 	0x5f5f0001
     954:	31434544 	andi	v1,t2,0x4544
     958:	455f3832 	0x455f3832
     95c:	4c495350 	0x4c495350
     960:	5f5f4e4f 	0x5f5f4e4f
     964:	2d453120 	sltiu	a1,t2,12576
     968:	4c443333 	0x4c443333
     96c:	5f000100 	0x5f000100
     970:	4345445f 	c0	0x145445f
     974:	5f383231 	0x5f383231
     978:	4e425553 	c3	0x425553
     97c:	414d524f 	0x414d524f
     980:	494d5f4c 	0x494d5f4c
     984:	205f5f4e 	addi	ra,v0,24398
     988:	30302e30 	andi	s0,at,0x2e30
     98c:	30303030 	andi	s0,at,0x3030
     990:	30303030 	andi	s0,at,0x3030
     994:	30303030 	andi	s0,at,0x3030
     998:	30303030 	andi	s0,at,0x3030
     99c:	30303030 	andi	s0,at,0x3030
     9a0:	30303030 	andi	s0,at,0x3030
     9a4:	30303030 	andi	s0,at,0x3030
     9a8:	45313030 	0x45313030
     9ac:	3431362d 	ori	s1,at,0x362d
     9b0:	004c4433 	0x4c4433
     9b4:	5f5f0001 	0x5f5f0001
     9b8:	41524653 	0x41524653
     9bc:	465f5443 	c1	0x5f5443
     9c0:	5f544942 	0x5f544942
     9c4:	0037205f 	0x37205f
     9c8:	5f5f0001 	0x5f5f0001
     9cc:	41524653 	0x41524653
     9d0:	495f5443 	0x495f5443
     9d4:	5f544942 	0x5f544942
     9d8:	0030205f 	0x30205f
     9dc:	5f5f0001 	0x5f5f0001
     9e0:	41524653 	0x41524653
     9e4:	4d5f5443 	0x4d5f5443
     9e8:	5f5f4e49 	0x5f5f4e49
     9ec:	302d2820 	andi	t5,at,0x2820
     9f0:	5248352e 	0x5248352e
     9f4:	352e302d 	ori	t6,t1,0x302d
     9f8:	00295248 	0x295248
     9fc:	5f5f0001 	0x5f5f0001
     a00:	41524653 	0x41524653
     a04:	4d5f5443 	0x4d5f5443
     a08:	5f5f5841 	0x5f5f5841
     a0c:	37583020 	ori	t8,k0,0x3020
     a10:	372d5046 	ori	t5,t9,0x5046
     a14:	01005248 	0x1005248
     a18:	535f5f00 	0x535f5f00
     a1c:	43415246 	c0	0x1415246
     a20:	50455f54 	0x50455f54
     a24:	4f4c4953 	c3	0x14c4953
     a28:	205f5f4e 	addi	ra,v0,24398
     a2c:	50317830 	0x50317830
     a30:	5248372d 	0x5248372d
     a34:	5f000100 	0x5f000100
     a38:	4653555f 	c1	0x53555f
     a3c:	54434152 	0x54434152
     a40:	4942465f 	0x4942465f
     a44:	205f5f54 	addi	ra,v0,24404
     a48:	00010038 	0x10038
     a4c:	53555f5f 	0x53555f5f
     a50:	43415246 	c0	0x1415246
     a54:	42495f54 	c0	0x495f54
     a58:	5f5f5449 	0x5f5f5449
     a5c:	01003020 	add	a2,t0,zero
     a60:	555f5f00 	0x555f5f00
     a64:	41524653 	0x41524653
     a68:	4d5f5443 	0x4d5f5443
     a6c:	5f5f4e49 	0x5f5f4e49
     a70:	302e3020 	andi	t6,at,0x3020
     a74:	00524855 	0x524855
     a78:	5f5f0001 	0x5f5f0001
     a7c:	52465355 	0x52465355
     a80:	5f544341 	0x5f544341
     a84:	5f58414d 	0x5f58414d
     a88:	5830205f 	0x5830205f
     a8c:	2d504646 	sltiu	s0,t2,17990
     a90:	52485538 	0x52485538
     a94:	5f000100 	0x5f000100
     a98:	4653555f 	c1	0x53555f
     a9c:	54434152 	0x54434152
     aa0:	5350455f 	0x5350455f
     aa4:	4e4f4c49 	c3	0x4f4c49
     aa8:	30205f5f 	andi	zero,at,0x5f5f
     aac:	2d503178 	sltiu	s0,t2,12664
     ab0:	52485538 	0x52485538
     ab4:	5f000100 	0x5f000100
     ab8:	4152465f 	0x4152465f
     abc:	465f5443 	c1	0x5f5443
     ac0:	5f544942 	0x5f544942
     ac4:	3531205f 	ori	s1,t1,0x205f
     ac8:	5f000100 	0x5f000100
     acc:	4152465f 	0x4152465f
     ad0:	495f5443 	0x495f5443
     ad4:	5f544942 	0x5f544942
     ad8:	0030205f 	0x30205f
     adc:	5f5f0001 	0x5f5f0001
     ae0:	43415246 	c0	0x1415246
     ae4:	494d5f54 	0x494d5f54
     ae8:	205f5f4e 	addi	ra,v0,24398
     aec:	2e302d28 	sltiu	s0,s1,11560
     af0:	302d5235 	andi	t5,at,0x5235
     af4:	2952352e 	slti	s2,t2,13614
     af8:	5f000100 	0x5f000100
     afc:	4152465f 	0x4152465f
     b00:	4d5f5443 	0x4d5f5443
     b04:	5f5f5841 	0x5f5f5841
     b08:	37583020 	ori	t8,k0,0x3020
     b0c:	50464646 	0x50464646
     b10:	5235312d 	0x5235312d
     b14:	5f000100 	0x5f000100
     b18:	4152465f 	0x4152465f
     b1c:	455f5443 	0x455f5443
     b20:	4c495350 	0x4c495350
     b24:	5f5f4e4f 	0x5f5f4e4f
     b28:	31783020 	andi	t8,t3,0x3020
     b2c:	35312d50 	ori	s1,t1,0x2d50
     b30:	00010052 	0x10052
     b34:	46555f5f 	c1	0x555f5f
     b38:	54434152 	0x54434152
     b3c:	4942465f 	0x4942465f
     b40:	205f5f54 	addi	ra,v0,24404
     b44:	01003631 	0x1003631
     b48:	555f5f00 	0x555f5f00
     b4c:	43415246 	c0	0x1415246
     b50:	42495f54 	c0	0x495f54
     b54:	5f5f5449 	0x5f5f5449
     b58:	01003020 	add	a2,t0,zero
     b5c:	555f5f00 	0x555f5f00
     b60:	43415246 	c0	0x1415246
     b64:	494d5f54 	0x494d5f54
     b68:	205f5f4e 	addi	ra,v0,24398
     b6c:	55302e30 	0x55302e30
     b70:	00010052 	0x10052
     b74:	46555f5f 	c1	0x555f5f
     b78:	54434152 	0x54434152
     b7c:	58414d5f 	0x58414d5f
     b80:	30205f5f 	andi	zero,at,0x5f5f
     b84:	46464658 	c1	0x464658
     b88:	312d5046 	andi	t5,t1,0x5046
     b8c:	00525536 	0x525536
     b90:	5f5f0001 	0x5f5f0001
     b94:	41524655 	0x41524655
     b98:	455f5443 	0x455f5443
     b9c:	4c495350 	0x4c495350
     ba0:	5f5f4e4f 	0x5f5f4e4f
     ba4:	31783020 	andi	t8,t3,0x3020
     ba8:	36312d50 	ori	s1,s1,0x2d50
     bac:	01005255 	0x1005255
     bb0:	4c5f5f00 	0x4c5f5f00
     bb4:	43415246 	c0	0x1415246
     bb8:	42465f54 	c0	0x465f54
     bbc:	5f5f5449 	0x5f5f5449
     bc0:	00313320 	0x313320
     bc4:	5f5f0001 	0x5f5f0001
     bc8:	4152464c 	0x4152464c
     bcc:	495f5443 	0x495f5443
     bd0:	5f544942 	0x5f544942
     bd4:	0030205f 	0x30205f
     bd8:	5f5f0001 	0x5f5f0001
     bdc:	4152464c 	0x4152464c
     be0:	4d5f5443 	0x4d5f5443
     be4:	5f5f4e49 	0x5f5f4e49
     be8:	302d2820 	andi	t5,at,0x2820
     bec:	524c352e 	0x524c352e
     bf0:	352e302d 	ori	t6,t1,0x302d
     bf4:	0029524c 	syscall	0xa549
     bf8:	5f5f0001 	0x5f5f0001
     bfc:	4152464c 	0x4152464c
     c00:	4d5f5443 	0x4d5f5443
     c04:	5f5f5841 	0x5f5f5841
     c08:	37583020 	ori	t8,k0,0x3020
     c0c:	46464646 	c1	0x464646
     c10:	50464646 	0x50464646
     c14:	4c31332d 	0x4c31332d
     c18:	00010052 	0x10052
     c1c:	464c5f5f 	c1	0x4c5f5f
     c20:	54434152 	0x54434152
     c24:	5350455f 	0x5350455f
     c28:	4e4f4c49 	c3	0x4f4c49
     c2c:	30205f5f 	andi	zero,at,0x5f5f
     c30:	2d503178 	sltiu	s0,t2,12664
     c34:	524c3133 	0x524c3133
     c38:	5f000100 	0x5f000100
     c3c:	464c555f 	c1	0x4c555f
     c40:	54434152 	0x54434152
     c44:	4942465f 	0x4942465f
     c48:	205f5f54 	addi	ra,v0,24404
     c4c:	01003233 	0x1003233
     c50:	555f5f00 	0x555f5f00
     c54:	4152464c 	0x4152464c
     c58:	495f5443 	0x495f5443
     c5c:	5f544942 	0x5f544942
     c60:	0030205f 	0x30205f
     c64:	5f5f0001 	0x5f5f0001
     c68:	52464c55 	0x52464c55
     c6c:	5f544341 	0x5f544341
     c70:	5f4e494d 	0x5f4e494d
     c74:	2e30205f 	sltiu	s0,s1,8287
     c78:	524c5530 	0x524c5530
     c7c:	5f000100 	0x5f000100
     c80:	464c555f 	c1	0x4c555f
     c84:	54434152 	0x54434152
     c88:	58414d5f 	0x58414d5f
     c8c:	30205f5f 	andi	zero,at,0x5f5f
     c90:	46464658 	c1	0x464658
     c94:	46464646 	c1	0x464646
     c98:	332d5046 	andi	t5,t9,0x5046
     c9c:	524c5532 	0x524c5532
     ca0:	5f000100 	0x5f000100
     ca4:	464c555f 	c1	0x4c555f
     ca8:	54434152 	0x54434152
     cac:	5350455f 	0x5350455f
     cb0:	4e4f4c49 	c3	0x4f4c49
     cb4:	30205f5f 	andi	zero,at,0x5f5f
     cb8:	2d503178 	sltiu	s0,t2,12664
     cbc:	4c553233 	0x4c553233
     cc0:	00010052 	0x10052
     cc4:	4c4c5f5f 	0x4c4c5f5f
     cc8:	43415246 	c0	0x1415246
     ccc:	42465f54 	c0	0x465f54
     cd0:	5f5f5449 	0x5f5f5449
     cd4:	00333620 	0x333620
     cd8:	5f5f0001 	0x5f5f0001
     cdc:	52464c4c 	0x52464c4c
     ce0:	5f544341 	0x5f544341
     ce4:	54494249 	0x54494249
     ce8:	30205f5f 	andi	zero,at,0x5f5f
     cec:	5f000100 	0x5f000100
     cf0:	464c4c5f 	c1	0x4c4c5f
     cf4:	54434152 	0x54434152
     cf8:	4e494d5f 	c3	0x494d5f
     cfc:	28205f5f 	slti	zero,at,24415
     d00:	352e302d 	ori	t6,t1,0x302d
     d04:	2d524c4c 	sltiu	s2,t2,19532
     d08:	4c352e30 	0x4c352e30
     d0c:	0029524c 	syscall	0xa549
     d10:	5f5f0001 	0x5f5f0001
     d14:	52464c4c 	0x52464c4c
     d18:	5f544341 	0x5f544341
     d1c:	5f58414d 	0x5f58414d
     d20:	5830205f 	0x5830205f
     d24:	46464637 	c1	0x464637
     d28:	46464646 	c1	0x464646
     d2c:	46464646 	c1	0x464646
     d30:	46464646 	c1	0x464646
     d34:	33362d50 	andi	s6,t9,0x2d50
     d38:	00524c4c 	syscall	0x14931
     d3c:	5f5f0001 	0x5f5f0001
     d40:	52464c4c 	0x52464c4c
     d44:	5f544341 	0x5f544341
     d48:	49535045 	0x49535045
     d4c:	5f4e4f4c 	0x5f4e4f4c
     d50:	7830205f 	0x7830205f
     d54:	362d5031 	ori	t5,s1,0x5031
     d58:	524c4c33 	0x524c4c33
     d5c:	5f000100 	0x5f000100
     d60:	4c4c555f 	0x4c4c555f
     d64:	43415246 	c0	0x1415246
     d68:	42465f54 	c0	0x465f54
     d6c:	5f5f5449 	0x5f5f5449
     d70:	00343620 	0x343620
     d74:	5f5f0001 	0x5f5f0001
     d78:	464c4c55 	c1	0x4c4c55
     d7c:	54434152 	0x54434152
     d80:	4942495f 	0x4942495f
     d84:	205f5f54 	addi	ra,v0,24404
     d88:	00010030 	0x10030
     d8c:	4c555f5f 	0x4c555f5f
     d90:	4152464c 	0x4152464c
     d94:	4d5f5443 	0x4d5f5443
     d98:	5f5f4e49 	0x5f5f4e49
     d9c:	302e3020 	andi	t6,at,0x3020
     da0:	524c4c55 	0x524c4c55
     da4:	5f000100 	0x5f000100
     da8:	4c4c555f 	0x4c4c555f
     dac:	43415246 	c0	0x1415246
     db0:	414d5f54 	0x414d5f54
     db4:	205f5f58 	addi	ra,v0,24408
     db8:	46465830 	c1	0x465830
     dbc:	46464646 	c1	0x464646
     dc0:	46464646 	c1	0x464646
     dc4:	46464646 	c1	0x464646
     dc8:	2d504646 	sltiu	s0,t2,17990
     dcc:	4c553436 	0x4c553436
     dd0:	0100524c 	syscall	0x40149
     dd4:	555f5f00 	0x555f5f00
     dd8:	52464c4c 	0x52464c4c
     ddc:	5f544341 	0x5f544341
     de0:	49535045 	0x49535045
     de4:	5f4e4f4c 	0x5f4e4f4c
     de8:	7830205f 	0x7830205f
     dec:	362d5031 	ori	t5,s1,0x5031
     df0:	4c4c5534 	0x4c4c5534
     df4:	00010052 	0x10052
     df8:	41535f5f 	0x41535f5f
     dfc:	4d554343 	0x4d554343
     e00:	4942465f 	0x4942465f
     e04:	205f5f54 	addi	ra,v0,24404
     e08:	00010037 	0x10037
     e0c:	41535f5f 	0x41535f5f
     e10:	4d554343 	0x4d554343
     e14:	4942495f 	0x4942495f
     e18:	205f5f54 	addi	ra,v0,24404
     e1c:	00010038 	0x10038
     e20:	41535f5f 	0x41535f5f
     e24:	4d554343 	0x4d554343
     e28:	4e494d5f 	c3	0x494d5f
     e2c:	28205f5f 	slti	zero,at,24415
     e30:	3158302d 	andi	t8,t2,0x302d
     e34:	4b483750 	c2	0x1483750
     e38:	3158302d 	andi	t8,t2,0x302d
     e3c:	4b483750 	c2	0x1483750
     e40:	00010029 	0x10029
     e44:	41535f5f 	0x41535f5f
     e48:	4d554343 	0x4d554343
     e4c:	58414d5f 	0x58414d5f
     e50:	30205f5f 	andi	zero,at,0x5f5f
     e54:	46463758 	c1	0x463758
     e58:	372d5046 	ori	t5,t9,0x5046
     e5c:	01004b48 	0x1004b48
     e60:	535f5f00 	0x535f5f00
     e64:	55434341 	0x55434341
     e68:	50455f4d 	0x50455f4d
     e6c:	4f4c4953 	c3	0x14c4953
     e70:	205f5f4e 	addi	ra,v0,24398
     e74:	50317830 	0x50317830
     e78:	4b48372d 	c2	0x148372d
     e7c:	5f000100 	0x5f000100
     e80:	4153555f 	0x4153555f
     e84:	4d554343 	0x4d554343
     e88:	4942465f 	0x4942465f
     e8c:	205f5f54 	addi	ra,v0,24404
     e90:	00010038 	0x10038
     e94:	53555f5f 	0x53555f5f
     e98:	55434341 	0x55434341
     e9c:	42495f4d 	c0	0x495f4d
     ea0:	5f5f5449 	0x5f5f5449
     ea4:	01003820 	add	a3,t0,zero
     ea8:	555f5f00 	0x555f5f00
     eac:	43434153 	c0	0x1434153
     eb0:	4d5f4d55 	0x4d5f4d55
     eb4:	5f5f4e49 	0x5f5f4e49
     eb8:	302e3020 	andi	t6,at,0x3020
     ebc:	004b4855 	0x4b4855
     ec0:	5f5f0001 	0x5f5f0001
     ec4:	43415355 	c0	0x1415355
     ec8:	5f4d5543 	0x5f4d5543
     ecc:	5f58414d 	0x5f58414d
     ed0:	5830205f 	0x5830205f
     ed4:	46464646 	c1	0x464646
     ed8:	55382d50 	0x55382d50
     edc:	01004b48 	0x1004b48
     ee0:	555f5f00 	0x555f5f00
     ee4:	43434153 	c0	0x1434153
     ee8:	455f4d55 	0x455f4d55
     eec:	4c495350 	0x4c495350
     ef0:	5f5f4e4f 	0x5f5f4e4f
     ef4:	31783020 	andi	t8,t3,0x3020
     ef8:	55382d50 	0x55382d50
     efc:	01004b48 	0x1004b48
     f00:	415f5f00 	0x415f5f00
     f04:	4d554343 	0x4d554343
     f08:	4942465f 	0x4942465f
     f0c:	205f5f54 	addi	ra,v0,24404
     f10:	01003531 	0x1003531
     f14:	415f5f00 	0x415f5f00
     f18:	4d554343 	0x4d554343
     f1c:	4942495f 	0x4942495f
     f20:	205f5f54 	addi	ra,v0,24404
     f24:	01003631 	0x1003631
     f28:	415f5f00 	0x415f5f00
     f2c:	4d554343 	0x4d554343
     f30:	4e494d5f 	c3	0x494d5f
     f34:	28205f5f 	slti	zero,at,24415
     f38:	3158302d 	andi	t8,t2,0x302d
     f3c:	4b353150 	c2	0x1353150
     f40:	3158302d 	andi	t8,t2,0x302d
     f44:	4b353150 	c2	0x1353150
     f48:	00010029 	0x10029
     f4c:	43415f5f 	c0	0x1415f5f
     f50:	5f4d5543 	0x5f4d5543
     f54:	5f58414d 	0x5f58414d
     f58:	5830205f 	0x5830205f
     f5c:	46464637 	c1	0x464637
     f60:	46464646 	c1	0x464646
     f64:	35312d50 	ori	s1,t1,0x2d50
     f68:	0001004b 	0x1004b
     f6c:	43415f5f 	c0	0x1415f5f
     f70:	5f4d5543 	0x5f4d5543
     f74:	49535045 	0x49535045
     f78:	5f4e4f4c 	0x5f4e4f4c
     f7c:	7830205f 	0x7830205f
     f80:	312d5031 	andi	t5,t1,0x5031
     f84:	01004b35 	0x1004b35
     f88:	555f5f00 	0x555f5f00
     f8c:	55434341 	0x55434341
     f90:	42465f4d 	c0	0x465f4d
     f94:	5f5f5449 	0x5f5f5449
     f98:	00363120 	0x363120
     f9c:	5f5f0001 	0x5f5f0001
     fa0:	43434155 	c0	0x1434155
     fa4:	495f4d55 	0x495f4d55
     fa8:	5f544942 	0x5f544942
     fac:	3631205f 	ori	s1,s1,0x205f
     fb0:	5f000100 	0x5f000100
     fb4:	4341555f 	c0	0x141555f
     fb8:	5f4d5543 	0x5f4d5543
     fbc:	5f4e494d 	0x5f4e494d
     fc0:	2e30205f 	sltiu	s0,s1,8287
     fc4:	004b5530 	0x4b5530
     fc8:	5f5f0001 	0x5f5f0001
     fcc:	43434155 	c0	0x1434155
     fd0:	4d5f4d55 	0x4d5f4d55
     fd4:	5f5f5841 	0x5f5f5841
     fd8:	46583020 	c1	0x583020
     fdc:	46464646 	c1	0x464646
     fe0:	50464646 	0x50464646
     fe4:	5536312d 	0x5536312d
     fe8:	0001004b 	0x1004b
     fec:	41555f5f 	0x41555f5f
     ff0:	4d554343 	0x4d554343
     ff4:	5350455f 	0x5350455f
     ff8:	4e4f4c49 	c3	0x4f4c49
     ffc:	30205f5f 	andi	zero,at,0x5f5f
    1000:	2d503178 	sltiu	s0,t2,12664
    1004:	4b553631 	c2	0x1553631
    1008:	5f000100 	0x5f000100
    100c:	43414c5f 	c0	0x1414c5f
    1010:	5f4d5543 	0x5f4d5543
    1014:	54494246 	0x54494246
    1018:	33205f5f 	andi	zero,t9,0x5f5f
    101c:	00010031 	0x10031
    1020:	414c5f5f 	0x414c5f5f
    1024:	4d554343 	0x4d554343
    1028:	4942495f 	0x4942495f
    102c:	205f5f54 	addi	ra,v0,24404
    1030:	01003233 	0x1003233
    1034:	4c5f5f00 	0x4c5f5f00
    1038:	55434341 	0x55434341
    103c:	494d5f4d 	0x494d5f4d
    1040:	205f5f4e 	addi	ra,v0,24398
    1044:	58302d28 	0x58302d28
    1048:	31335031 	andi	s3,t1,0x5031
    104c:	302d4b4c 	andi	t5,at,0x4b4c
    1050:	33503158 	andi	s0,k0,0x3158
    1054:	294b4c31 	slti	t3,t2,19505
    1058:	5f000100 	0x5f000100
    105c:	43414c5f 	c0	0x1414c5f
    1060:	5f4d5543 	0x5f4d5543
    1064:	5f58414d 	0x5f58414d
    1068:	5830205f 	0x5830205f
    106c:	46464637 	c1	0x464637
    1070:	46464646 	c1	0x464646
    1074:	46464646 	c1	0x464646
    1078:	46464646 	c1	0x464646
    107c:	31332d50 	andi	s3,t1,0x2d50
    1080:	01004b4c 	syscall	0x4012d
    1084:	4c5f5f00 	0x4c5f5f00
    1088:	55434341 	0x55434341
    108c:	50455f4d 	0x50455f4d
    1090:	4f4c4953 	c3	0x14c4953
    1094:	205f5f4e 	addi	ra,v0,24398
    1098:	50317830 	0x50317830
    109c:	4c31332d 	0x4c31332d
    10a0:	0001004b 	0x1004b
    10a4:	4c555f5f 	0x4c555f5f
    10a8:	55434341 	0x55434341
    10ac:	42465f4d 	c0	0x465f4d
    10b0:	5f5f5449 	0x5f5f5449
    10b4:	00323320 	0x323320
    10b8:	5f5f0001 	0x5f5f0001
    10bc:	43414c55 	c0	0x1414c55
    10c0:	5f4d5543 	0x5f4d5543
    10c4:	54494249 	0x54494249
    10c8:	33205f5f 	andi	zero,t9,0x5f5f
    10cc:	00010032 	0x10032
    10d0:	4c555f5f 	0x4c555f5f
    10d4:	55434341 	0x55434341
    10d8:	494d5f4d 	0x494d5f4d
    10dc:	205f5f4e 	addi	ra,v0,24398
    10e0:	55302e30 	0x55302e30
    10e4:	01004b4c 	syscall	0x4012d
    10e8:	555f5f00 	0x555f5f00
    10ec:	4343414c 	c0	0x143414c
    10f0:	4d5f4d55 	0x4d5f4d55
    10f4:	5f5f5841 	0x5f5f5841
    10f8:	46583020 	c1	0x583020
    10fc:	46464646 	c1	0x464646
    1100:	46464646 	c1	0x464646
    1104:	46464646 	c1	0x464646
    1108:	50464646 	0x50464646
    110c:	5532332d 	0x5532332d
    1110:	01004b4c 	syscall	0x4012d
    1114:	555f5f00 	0x555f5f00
    1118:	4343414c 	c0	0x143414c
    111c:	455f4d55 	0x455f4d55
    1120:	4c495350 	0x4c495350
    1124:	5f5f4e4f 	0x5f5f4e4f
    1128:	31783020 	andi	t8,t3,0x3020
    112c:	32332d50 	andi	s3,s1,0x2d50
    1130:	004b4c55 	0x4b4c55
    1134:	5f5f0001 	0x5f5f0001
    1138:	43414c4c 	c0	0x1414c4c
    113c:	5f4d5543 	0x5f4d5543
    1140:	54494246 	0x54494246
    1144:	33205f5f 	andi	zero,t9,0x5f5f
    1148:	00010031 	0x10031
    114c:	4c4c5f5f 	0x4c4c5f5f
    1150:	55434341 	0x55434341
    1154:	42495f4d 	c0	0x495f4d
    1158:	5f5f5449 	0x5f5f5449
    115c:	00323320 	0x323320
    1160:	5f5f0001 	0x5f5f0001
    1164:	43414c4c 	c0	0x1414c4c
    1168:	5f4d5543 	0x5f4d5543
    116c:	5f4e494d 	0x5f4e494d
    1170:	2d28205f 	sltiu	t0,t1,8287
    1174:	50315830 	0x50315830
    1178:	4c4c3133 	0x4c4c3133
    117c:	58302d4b 	0x58302d4b
    1180:	31335031 	andi	s3,t1,0x5031
    1184:	294b4c4c 	slti	t3,t2,19532
    1188:	5f000100 	0x5f000100
    118c:	414c4c5f 	0x414c4c5f
    1190:	4d554343 	0x4d554343
    1194:	58414d5f 	0x58414d5f
    1198:	30205f5f 	andi	zero,at,0x5f5f
    119c:	46463758 	c1	0x463758
    11a0:	46464646 	c1	0x464646
    11a4:	46464646 	c1	0x464646
    11a8:	46464646 	c1	0x464646
    11ac:	332d5046 	andi	t5,t9,0x5046
    11b0:	4b4c4c31 	c2	0x14c4c31
    11b4:	5f000100 	0x5f000100
    11b8:	414c4c5f 	0x414c4c5f
    11bc:	4d554343 	0x4d554343
    11c0:	5350455f 	0x5350455f
    11c4:	4e4f4c49 	c3	0x4f4c49
    11c8:	30205f5f 	andi	zero,at,0x5f5f
    11cc:	2d503178 	sltiu	s0,t2,12664
    11d0:	4c4c3133 	0x4c4c3133
    11d4:	0001004b 	0x1004b
    11d8:	4c555f5f 	0x4c555f5f
    11dc:	4343414c 	c0	0x143414c
    11e0:	465f4d55 	c1	0x5f4d55
    11e4:	5f544942 	0x5f544942
    11e8:	3233205f 	andi	s3,s1,0x205f
    11ec:	5f000100 	0x5f000100
    11f0:	4c4c555f 	0x4c4c555f
    11f4:	55434341 	0x55434341
    11f8:	42495f4d 	c0	0x495f4d
    11fc:	5f5f5449 	0x5f5f5449
    1200:	00323320 	0x323320
    1204:	5f5f0001 	0x5f5f0001
    1208:	414c4c55 	0x414c4c55
    120c:	4d554343 	0x4d554343
    1210:	4e494d5f 	c3	0x494d5f
    1214:	30205f5f 	andi	zero,at,0x5f5f
    1218:	4c55302e 	0x4c55302e
    121c:	01004b4c 	syscall	0x4012d
    1220:	555f5f00 	0x555f5f00
    1224:	43414c4c 	c0	0x1414c4c
    1228:	5f4d5543 	0x5f4d5543
    122c:	5f58414d 	0x5f58414d
    1230:	5830205f 	0x5830205f
    1234:	46464646 	c1	0x464646
    1238:	46464646 	c1	0x464646
    123c:	46464646 	c1	0x464646
    1240:	46464646 	c1	0x464646
    1244:	32332d50 	andi	s3,s1,0x2d50
    1248:	4b4c4c55 	c2	0x14c4c55
    124c:	5f000100 	0x5f000100
    1250:	4c4c555f 	0x4c4c555f
    1254:	55434341 	0x55434341
    1258:	50455f4d 	0x50455f4d
    125c:	4f4c4953 	c3	0x14c4953
    1260:	205f5f4e 	addi	ra,v0,24398
    1264:	50317830 	0x50317830
    1268:	5532332d 	0x5532332d
    126c:	004b4c4c 	syscall	0x12d31
    1270:	5f5f0001 	0x5f5f0001
    1274:	465f5151 	c1	0x5f5151
    1278:	5f544942 	0x5f544942
    127c:	0037205f 	0x37205f
    1280:	5f5f0001 	0x5f5f0001
    1284:	495f5151 	0x495f5151
    1288:	5f544942 	0x5f544942
    128c:	0030205f 	0x30205f
    1290:	5f5f0001 	0x5f5f0001
    1294:	465f5148 	c1	0x5f5148
    1298:	5f544942 	0x5f544942
    129c:	3531205f 	ori	s1,t1,0x205f
    12a0:	5f000100 	0x5f000100
    12a4:	5f51485f 	0x5f51485f
    12a8:	54494249 	0x54494249
    12ac:	30205f5f 	andi	zero,at,0x5f5f
    12b0:	5f000100 	0x5f000100
    12b4:	5f51535f 	0x5f51535f
    12b8:	54494246 	0x54494246
    12bc:	33205f5f 	andi	zero,t9,0x5f5f
    12c0:	00010031 	0x10031
    12c4:	51535f5f 	0x51535f5f
    12c8:	4942495f 	0x4942495f
    12cc:	205f5f54 	addi	ra,v0,24404
    12d0:	00010030 	0x10030
    12d4:	51445f5f 	0x51445f5f
    12d8:	4942465f 	0x4942465f
    12dc:	205f5f54 	addi	ra,v0,24404
    12e0:	01003336 	0x1003336
    12e4:	445f5f00 	0x445f5f00
    12e8:	42495f51 	c0	0x495f51
    12ec:	5f5f5449 	0x5f5f5449
    12f0:	01003020 	add	a2,t0,zero
    12f4:	545f5f00 	0x545f5f00
    12f8:	42465f51 	c0	0x465f51
    12fc:	5f5f5449 	0x5f5f5449
    1300:	37323120 	ori	s2,t9,0x3120
    1304:	5f000100 	0x5f000100
    1308:	5f51545f 	0x5f51545f
    130c:	54494249 	0x54494249
    1310:	30205f5f 	andi	zero,at,0x5f5f
    1314:	5f000100 	0x5f000100
    1318:	5151555f 	0x5151555f
    131c:	4942465f 	0x4942465f
    1320:	205f5f54 	addi	ra,v0,24404
    1324:	00010038 	0x10038
    1328:	51555f5f 	0x51555f5f
    132c:	42495f51 	c0	0x495f51
    1330:	5f5f5449 	0x5f5f5449
    1334:	01003020 	add	a2,t0,zero
    1338:	555f5f00 	0x555f5f00
    133c:	465f5148 	c1	0x5f5148
    1340:	5f544942 	0x5f544942
    1344:	3631205f 	ori	s1,s1,0x205f
    1348:	5f000100 	0x5f000100
    134c:	5148555f 	0x5148555f
    1350:	4942495f 	0x4942495f
    1354:	205f5f54 	addi	ra,v0,24404
    1358:	00010030 	0x10030
    135c:	53555f5f 	0x53555f5f
    1360:	42465f51 	c0	0x465f51
    1364:	5f5f5449 	0x5f5f5449
    1368:	00323320 	0x323320
    136c:	5f5f0001 	0x5f5f0001
    1370:	5f515355 	0x5f515355
    1374:	54494249 	0x54494249
    1378:	30205f5f 	andi	zero,at,0x5f5f
    137c:	5f000100 	0x5f000100
    1380:	5144555f 	0x5144555f
    1384:	4942465f 	0x4942465f
    1388:	205f5f54 	addi	ra,v0,24404
    138c:	01003436 	0x1003436
    1390:	555f5f00 	0x555f5f00
    1394:	495f5144 	0x495f5144
    1398:	5f544942 	0x5f544942
    139c:	0030205f 	0x30205f
    13a0:	5f5f0001 	0x5f5f0001
    13a4:	5f515455 	0x5f515455
    13a8:	54494246 	0x54494246
    13ac:	31205f5f 	andi	zero,t1,0x5f5f
    13b0:	01003832 	0x1003832
    13b4:	555f5f00 	0x555f5f00
    13b8:	495f5154 	0x495f5154
    13bc:	5f544942 	0x5f544942
    13c0:	0030205f 	0x30205f
    13c4:	5f5f0001 	0x5f5f0001
    13c8:	465f4148 	c1	0x5f4148
    13cc:	5f544942 	0x5f544942
    13d0:	0037205f 	0x37205f
    13d4:	5f5f0001 	0x5f5f0001
    13d8:	495f4148 	0x495f4148
    13dc:	5f544942 	0x5f544942
    13e0:	0038205f 	0x38205f
    13e4:	5f5f0001 	0x5f5f0001
    13e8:	465f4153 	c1	0x5f4153
    13ec:	5f544942 	0x5f544942
    13f0:	3531205f 	ori	s1,t1,0x205f
    13f4:	5f000100 	0x5f000100
    13f8:	5f41535f 	0x5f41535f
    13fc:	54494249 	0x54494249
    1400:	31205f5f 	andi	zero,t1,0x5f5f
    1404:	00010036 	0x10036
    1408:	41445f5f 	0x41445f5f
    140c:	4942465f 	0x4942465f
    1410:	205f5f54 	addi	ra,v0,24404
    1414:	01003133 	0x1003133
    1418:	445f5f00 	0x445f5f00
    141c:	42495f41 	c0	0x495f41
    1420:	5f5f5449 	0x5f5f5449
    1424:	00323320 	0x323320
    1428:	5f5f0001 	0x5f5f0001
    142c:	465f4154 	c1	0x5f4154
    1430:	5f544942 	0x5f544942
    1434:	3336205f 	andi	s6,t9,0x205f
    1438:	5f000100 	0x5f000100
    143c:	5f41545f 	0x5f41545f
    1440:	54494249 	0x54494249
    1444:	36205f5f 	ori	zero,s1,0x5f5f
    1448:	00010034 	0x10034
    144c:	48555f5f 	0x48555f5f
    1450:	42465f41 	c0	0x465f41
    1454:	5f5f5449 	0x5f5f5449
    1458:	01003820 	add	a3,t0,zero
    145c:	555f5f00 	0x555f5f00
    1460:	495f4148 	0x495f4148
    1464:	5f544942 	0x5f544942
    1468:	0038205f 	0x38205f
    146c:	5f5f0001 	0x5f5f0001
    1470:	5f415355 	0x5f415355
    1474:	54494246 	0x54494246
    1478:	31205f5f 	andi	zero,t1,0x5f5f
    147c:	00010036 	0x10036
    1480:	53555f5f 	0x53555f5f
    1484:	42495f41 	c0	0x495f41
    1488:	5f5f5449 	0x5f5f5449
    148c:	00363120 	0x363120
    1490:	5f5f0001 	0x5f5f0001
    1494:	5f414455 	0x5f414455
    1498:	54494246 	0x54494246
    149c:	33205f5f 	andi	zero,t9,0x5f5f
    14a0:	00010032 	0x10032
    14a4:	44555f5f 	0x44555f5f
    14a8:	42495f41 	c0	0x495f41
    14ac:	5f5f5449 	0x5f5f5449
    14b0:	00323320 	0x323320
    14b4:	5f5f0001 	0x5f5f0001
    14b8:	5f415455 	0x5f415455
    14bc:	54494246 	0x54494246
    14c0:	36205f5f 	ori	zero,s1,0x5f5f
    14c4:	00010034 	0x10034
    14c8:	54555f5f 	0x54555f5f
    14cc:	42495f41 	c0	0x495f41
    14d0:	5f5f5449 	0x5f5f5449
    14d4:	00343620 	0x343620
    14d8:	5f5f0001 	0x5f5f0001
    14dc:	49474552 	0x49474552
    14e0:	52455453 	0x52455453
    14e4:	4552505f 	0x4552505f
    14e8:	5f584946 	0x5f584946
    14ec:	0100205f 	0x100205f
    14f0:	555f5f00 	0x555f5f00
    14f4:	5f524553 	0x5f524553
    14f8:	4542414c 	0x4542414c
    14fc:	52505f4c 	0x52505f4c
    1500:	58494645 	0x58494645
    1504:	00205f5f 	0x205f5f
    1508:	5f5f0001 	0x5f5f0001
    150c:	53524556 	0x53524556
    1510:	5f4e4f49 	0x5f4e4f49
    1514:	3422205f 	ori	v0,at,0x205f
    1518:	352e342e 	ori	t6,t1,0x342e
    151c:	00010022 	neg	zero,at
    1520:	4e475f5f 	c3	0x475f5f
    1524:	535f4355 	0x535f4355
    1528:	5f434454 	0x5f434454
    152c:	494c4e49 	0x494c4e49
    1530:	5f5f454e 	0x5f5f454e
    1534:	01003120 	0x1003120
    1538:	4e5f5f00 	c3	0x5f5f00
    153c:	4e495f4f 	c3	0x495f4f
    1540:	454e494c 	0x454e494c
    1544:	31205f5f 	andi	zero,t1,0x5f5f
    1548:	5f000100 	0x5f000100
    154c:	4e49465f 	c3	0x49465f
    1550:	5f455449 	0x5f455449
    1554:	4854414d 	0x4854414d
    1558:	4c4e4f5f 	0x4c4e4f5f
    155c:	205f5f59 	addi	ra,v0,24409
    1560:	00010030 	0x10030
    1564:	69705f5f 	0x69705f5f
    1568:	205f5f63 	addi	ra,v0,24419
    156c:	00010031 	0x10031
    1570:	49505f5f 	0x49505f5f
    1574:	205f5f43 	addi	ra,v0,24387
    1578:	00010031 	0x10031
    157c:	43475f5f 	c0	0x1475f5f
    1580:	41485f43 	0x41485f43
    1584:	535f4556 	0x535f4556
    1588:	5f434e59 	0x5f434e59
    158c:	504d4f43 	0x504d4f43
    1590:	5f455241 	0x5f455241
    1594:	5f444e41 	0x5f444e41
    1598:	50415753 	0x50415753
    159c:	3120315f 	andi	zero,t1,0x315f
    15a0:	5f000100 	0x5f000100
    15a4:	4343475f 	c0	0x143475f
    15a8:	5641485f 	0x5641485f
    15ac:	59535f45 	0x59535f45
    15b0:	435f434e 	c0	0x15f434e
    15b4:	41504d4f 	0x41504d4f
    15b8:	415f4552 	0x415f4552
    15bc:	535f444e 	0x535f444e
    15c0:	5f504157 	0x5f504157
    15c4:	00312032 	0x312032
    15c8:	5f5f0001 	0x5f5f0001
    15cc:	5f434347 	0x5f434347
    15d0:	45564148 	0x45564148
    15d4:	4e59535f 	c3	0x59535f
    15d8:	4f435f43 	c3	0x1435f43
    15dc:	5241504d 	0x5241504d
    15e0:	4e415f45 	c3	0x415f45
    15e4:	57535f44 	0x57535f44
    15e8:	345f5041 	ori	ra,v0,0x5041
    15ec:	01003120 	0x1003120
    15f0:	535f5f00 	0x535f5f00
    15f4:	4f455a49 	c3	0x1455a49
    15f8:	4e495f46 	c3	0x495f46
    15fc:	205f5f54 	addi	ra,v0,24404
    1600:	00010034 	0x10034
    1604:	49535f5f 	0x49535f5f
    1608:	464f455a 	c1	0x4f455a
    160c:	4e4f4c5f 	c3	0x4f4c5f
    1610:	205f5f47 	addi	ra,v0,24391
    1614:	00010034 	0x10034
    1618:	49535f5f 	0x49535f5f
    161c:	464f455a 	c1	0x4f455a
    1620:	4e4f4c5f 	c3	0x4f4c5f
    1624:	4f4c5f47 	c3	0x14c5f47
    1628:	5f5f474e 	0x5f5f474e
    162c:	01003820 	add	a3,t0,zero
    1630:	535f5f00 	0x535f5f00
    1634:	4f455a49 	c3	0x1455a49
    1638:	48535f46 	0x48535f46
    163c:	5f54524f 	0x5f54524f
    1640:	0032205f 	0x32205f
    1644:	5f5f0001 	0x5f5f0001
    1648:	455a4953 	0x455a4953
    164c:	465f464f 	c1	0x5f464f
    1650:	54414f4c 	0x54414f4c
    1654:	34205f5f 	ori	zero,at,0x5f5f
    1658:	5f000100 	0x5f000100
    165c:	5a49535f 	0x5a49535f
    1660:	5f464f45 	0x5f464f45
    1664:	42554f44 	c0	0x554f44
    1668:	5f5f454c 	0x5f5f454c
    166c:	01003820 	add	a3,t0,zero
    1670:	535f5f00 	0x535f5f00
    1674:	4f455a49 	c3	0x1455a49
    1678:	4f4c5f46 	c3	0x14c5f46
    167c:	445f474e 	0x445f474e
    1680:	4c42554f 	0x4c42554f
    1684:	205f5f45 	addi	ra,v0,24389
    1688:	00010038 	0x10038
    168c:	49535f5f 	0x49535f5f
    1690:	464f455a 	c1	0x4f455a
    1694:	5a49535f 	0x5a49535f
    1698:	5f545f45 	0x5f545f45
    169c:	0034205f 	0x34205f
    16a0:	5f5f0001 	0x5f5f0001
    16a4:	455a4953 	0x455a4953
    16a8:	575f464f 	0x575f464f
    16ac:	52414843 	0x52414843
    16b0:	5f5f545f 	0x5f5f545f
    16b4:	01003420 	0x1003420
    16b8:	535f5f00 	0x535f5f00
    16bc:	4f455a49 	c3	0x1455a49
    16c0:	49575f46 	0x49575f46
    16c4:	545f544e 	0x545f544e
    16c8:	34205f5f 	ori	zero,at,0x5f5f
    16cc:	5f000100 	0x5f000100
    16d0:	5a49535f 	0x5a49535f
    16d4:	5f464f45 	0x5f464f45
    16d8:	44525450 	0x44525450
    16dc:	5f464649 	0x5f464649
    16e0:	205f5f54 	addi	ra,v0,24404
    16e4:	00010034 	0x10034
    16e8:	49535f5f 	0x49535f5f
    16ec:	464f455a 	c1	0x4f455a
    16f0:	494f505f 	0x494f505f
    16f4:	5245544e 	0x5245544e
    16f8:	34205f5f 	ori	zero,at,0x5f5f
    16fc:	5f000100 	0x5f000100
    1700:	70696d5f 	0x70696d5f
    1704:	205f5f73 	addi	ra,v0,24435
    1708:	00010031 	0x10031
    170c:	70696d5f 	0x70696d5f
    1710:	00312073 	0x312073
    1714:	696d0001 	0x696d0001
    1718:	31207370 	andi	zero,t1,0x7370
    171c:	5f000100 	0x5f000100
    1720:	3033525f 	andi	s3,at,0x525f
    1724:	31203030 	andi	zero,t1,0x3030
    1728:	5f000100 	0x5f000100
    172c:	3033525f 	andi	s3,at,0x525f
    1730:	5f5f3030 	0x5f5f3030
    1734:	01003120 	0x1003120
    1738:	30335200 	andi	s3,at,0x5200
    173c:	31203030 	andi	zero,t1,0x3030
    1740:	5f000100 	0x5f000100
    1744:	30303352 	andi	s0,at,0x3352
    1748:	00312030 	0x312030
    174c:	5f5f0001 	0x5f5f0001
    1750:	7370696d 	0x7370696d
    1754:	7270665f 	0x7270665f
    1758:	00323320 	0x323320
    175c:	4d5f0001 	0x4d5f0001
    1760:	5f535049 	0x5f535049
    1764:	48435241 	0x48435241
    1768:	50494d5f 	0x50494d5f
    176c:	31203153 	andi	zero,t1,0x3153
    1770:	5f000100 	0x5f000100
    1774:	5350494d 	0x5350494d
    1778:	4352415f 	c0	0x152415f
    177c:	6d222048 	0x6d222048
    1780:	31737069 	andi	s3,t3,0x7069
    1784:	00010022 	neg	zero,at
    1788:	50494d5f 	0x50494d5f
    178c:	55545f53 	0x55545f53
    1790:	4d5f454e 	0x4d5f454e
    1794:	31535049 	andi	s3,t2,0x5049
    1798:	01003120 	0x1003120
    179c:	494d5f00 	0x494d5f00
    17a0:	545f5350 	0x545f5350
    17a4:	20454e55 	addi	a1,v0,20053
    17a8:	70696d22 	0x70696d22
    17ac:	00223173 	0x223173
    17b0:	5f5f0001 	0x5f5f0001
    17b4:	7370696d 	0x7370696d
    17b8:	01003120 	0x1003120
    17bc:	494d5f00 	0x494d5f00
    17c0:	495f5350 	0x495f5350
    17c4:	5f204153 	0x5f204153
    17c8:	5350494d 	0x5350494d
    17cc:	4153495f 	0x4153495f
    17d0:	50494d5f 	0x50494d5f
    17d4:	01003153 	0x1003153
    17d8:	42415f00 	c0	0x415f00
    17dc:	32334f49 	andi	s3,s1,0x4f49
    17e0:	01003120 	0x1003120
    17e4:	494d5f00 	0x494d5f00
    17e8:	535f5350 	0x535f5350
    17ec:	5f204d49 	0x5f204d49
    17f0:	4f494241 	c3	0x1494241
    17f4:	01003233 	0x1003233
    17f8:	494d5f00 	0x494d5f00
    17fc:	535f5350 	0x535f5350
    1800:	544e495a 	0x544e495a
    1804:	00323320 	0x323320
    1808:	4d5f0001 	0x4d5f0001
    180c:	5f535049 	0x5f535049
    1810:	4f4c5a53 	c3	0x14c5a53
    1814:	3320474e 	andi	zero,t9,0x474e
    1818:	00010032 	0x10032
    181c:	50494d5f 	0x50494d5f
    1820:	5a535f53 	0x5a535f53
    1824:	20525450 	addi	s2,v0,21584
    1828:	01003233 	0x1003233
    182c:	494d5f00 	0x494d5f00
    1830:	465f5350 	c1	0x5f5350
    1834:	54455350 	0x54455350
    1838:	00363120 	0x363120
    183c:	5f5f0001 	0x5f5f0001
    1840:	7370696d 	0x7370696d
    1844:	7261685f 	0x7261685f
    1848:	6c665f64 	0x6c665f64
    184c:	2074616f 	addi	s4,v1,24943
    1850:	00010031 	0x10031
    1854:	494d5f5f 	0x494d5f5f
    1858:	4c455350 	0x4c455350
    185c:	01003120 	0x1003120
    1860:	4d5f5f00 	0x4d5f5f00
    1864:	45535049 	0x45535049
    1868:	205f5f4c 	addi	ra,v0,24396
    186c:	00010031 	0x10031
    1870:	5350494d 	0x5350494d
    1874:	31204c45 	andi	zero,t1,0x4c45
    1878:	5f000100 	0x5f000100
    187c:	5350494d 	0x5350494d
    1880:	31204c45 	andi	zero,t1,0x4c45
    1884:	5f000100 	0x5f000100
    1888:	70696d5f 	0x70696d5f
    188c:	62615f73 	0x62615f73
    1890:	6c616369 	0x6c616369
    1894:	3120736c 	andi	zero,t1,0x736c
    1898:	5f000100 	0x5f000100
    189c:	4e414c5f 	c3	0x414c5f
    18a0:	47415547 	c1	0x1415547
    18a4:	20435f45 	addi	v1,v0,24389
    18a8:	00010031 	0x10031
    18ac:	414c5f5f 	0x414c5f5f
    18b0:	4155474e 	0x4155474e
    18b4:	435f4547 	c0	0x15f4547
    18b8:	31205f5f 	andi	zero,t1,0x5f5f
    18bc:	4c000100 	0x4c000100
    18c0:	55474e41 	0x55474e41
    18c4:	5f454741 	0x5f454741
    18c8:	00312043 	0x312043
    18cc:	4c5f0001 	0x4c5f0001
    18d0:	55474e41 	0x55474e41
    18d4:	5f454741 	0x5f454741
    18d8:	00312043 	0x312043
    18dc:	5f5f0001 	0x5f5f0001
    18e0:	5f756e67 	0x5f756e67
    18e4:	756e696c 	jalx	5b9a5b0 <foobar+0x5b9a364>
    18e8:	205f5f78 	addi	ra,v0,24440
    18ec:	00010031 	0x10031
    18f0:	696c5f5f 	0x696c5f5f
    18f4:	2078756e 	addi	t8,v1,30062
    18f8:	00010031 	0x10031
    18fc:	696c5f5f 	0x696c5f5f
    1900:	5f78756e 	0x5f78756e
    1904:	0031205f 	0x31205f
    1908:	696c0001 	0x696c0001
    190c:	2078756e 	addi	t8,v1,30062
    1910:	00010031 	0x10031
    1914:	6e755f5f 	0x6e755f5f
    1918:	31207869 	andi	zero,t1,0x7869
    191c:	5f000100 	0x5f000100
    1920:	696e755f 	0x696e755f
    1924:	205f5f78 	addi	ra,v0,24440
    1928:	00010031 	0x10031
    192c:	78696e75 	0x78696e75
    1930:	01003120 	0x1003120
    1934:	455f5f00 	0x455f5f00
    1938:	5f5f464c 	0x5f5f464c
    193c:	01003120 	0x1003120
    1940:	425f5f00 	c0	0x5f5f00
    1944:	45474749 	0x45474749
    1948:	415f5453 	0x415f5453
    194c:	4e47494c 	c3	0x47494c
    1950:	544e454d 	0x544e454d
    1954:	38205f5f 	xori	zero,at,0x5f5f
    1958:	5f000100 	0x5f000100
    195c:	44464c45 	0x44464c45
    1960:	5f504d55 	0x5f504d55
    1964:	03003120 	0x3003120
    1968:	1d010205 	0x1d010205
    196c:	4454535f 	0x4454535f
    1970:	4c4f4f42 	0x4c4f4f42
    1974:	0020485f 	0x20485f
    1978:	6f622101 	0x6f622101
    197c:	5f206c6f 	0x5f206c6f
    1980:	6c6f6f42 	0x6c6f6f42
    1984:	74220100 	jalx	880400 <foobar+0x8801b4>
    1988:	20657572 	addi	a1,v1,30066
    198c:	23010031 	addi	at,t8,49
    1990:	736c6166 	0x736c6166
    1994:	00302065 	0x302065
    1998:	5f5f3001 	0x5f5f3001
    199c:	6c6f6f62 	0x6c6f6f62
    19a0:	7572745f 	jalx	5c9d17c <foobar+0x5c9cf30>
    19a4:	61665f65 	0x61665f65
    19a8:	5f65736c 	0x5f65736c
    19ac:	5f657261 	0x5f657261
    19b0:	69666564 	0x69666564
    19b4:	2064656e 	addi	a0,v1,25966
    19b8:	03040031 	0x3040031
    19bc:	19030306 	0x19030306
    19c0:	5f140104 	0x5f140104
    19c4:	54414546 	0x54414546
    19c8:	53455255 	0x53455255
    19cc:	3120485f 	andi	zero,t1,0x485f
    19d0:	5f5f0200 	0x5f5f0200
    19d4:	4553555f 	0x4553555f
    19d8:	4f53495f 	c3	0x153495f
    19dc:	00393943 	0x393943
    19e0:	5f5f6002 	0x5f5f6002
    19e4:	5f455355 	0x5f455355
    19e8:	434f5349 	c0	0x14f5349
    19ec:	02003539 	0x2003539
    19f0:	555f5f61 	0x555f5f61
    19f4:	505f4553 	0x505f4553
    19f8:	5849534f 	0x5849534f
    19fc:	5f620200 	0x5f620200
    1a00:	4553555f 	0x4553555f
    1a04:	534f505f 	0x534f505f
    1a08:	00325849 	0x325849
    1a0c:	5f5f6302 	0x5f5f6302
    1a10:	5f455355 	0x5f455355
    1a14:	49534f50 	0x49534f50
    1a18:	39393158 	xori	t9,t1,0x3158
    1a1c:	00393033 	0x393033
    1a20:	5f5f6402 	0x5f5f6402
    1a24:	5f455355 	0x5f455355
    1a28:	49534f50 	0x49534f50
    1a2c:	39393158 	xori	t9,t1,0x3158
    1a30:	00363035 	0x363035
    1a34:	5f5f6502 	0x5f5f6502
    1a38:	5f455355 	0x5f455355
    1a3c:	45504f58 	0x45504f58
    1a40:	6602004e 	0x6602004e
    1a44:	53555f5f 	0x53555f5f
    1a48:	4f585f45 	c3	0x1585f45
    1a4c:	5f4e4550 	0x5f4e4550
    1a50:	45545845 	0x45545845
    1a54:	4445444e 	0x4445444e
    1a58:	5f670200 	0x5f670200
    1a5c:	4553555f 	0x4553555f
    1a60:	494e555f 	0x494e555f
    1a64:	00383958 	0x383958
    1a68:	5f5f6802 	0x5f5f6802
    1a6c:	5f455355 	0x5f455355
    1a70:	45504f58 	0x45504f58
    1a74:	004b324e 	0x4b324e
    1a78:	5f5f6902 	0x5f5f6902
    1a7c:	5f455355 	0x5f455355
    1a80:	45504f58 	0x45504f58
    1a84:	384b324e 	xori	t3,v0,0x324e
    1a88:	5f6a0200 	0x5f6a0200
    1a8c:	4553555f 	0x4553555f
    1a90:	52414c5f 	0x52414c5f
    1a94:	49464547 	0x49464547
    1a98:	0200454c 	syscall	0x80115
    1a9c:	555f5f6b 	0x555f5f6b
    1aa0:	4c5f4553 	0x4c5f4553
    1aa4:	45475241 	0x45475241
    1aa8:	454c4946 	0x454c4946
    1aac:	02003436 	0x2003436
    1ab0:	555f5f6c 	0x555f5f6c
    1ab4:	465f4553 	c1	0x5f4553
    1ab8:	5f454c49 	0x5f454c49
    1abc:	5346464f 	0x5346464f
    1ac0:	34365445 	ori	s6,at,0x5445
    1ac4:	5f6d0200 	0x5f6d0200
    1ac8:	4553555f 	0x4553555f
    1acc:	4453425f 	0x4453425f
    1ad0:	5f6e0200 	0x5f6e0200
    1ad4:	4553555f 	0x4553555f
    1ad8:	4956535f 	0x4956535f
    1adc:	6f020044 	0x6f020044
    1ae0:	53555f5f 	0x53555f5f
    1ae4:	494d5f45 	0x494d5f45
    1ae8:	02004353 	0x2004353
    1aec:	555f5f70 	0x555f5f70
    1af0:	415f4553 	0x415f4553
    1af4:	4c494654 	0x4c494654
    1af8:	71020045 	0x71020045
    1afc:	53555f5f 	0x53555f5f
    1b00:	4e475f45 	c3	0x475f45
    1b04:	72020055 	0x72020055
    1b08:	53555f5f 	0x53555f5f
    1b0c:	45525f45 	0x45525f45
    1b10:	52544e45 	0x52544e45
    1b14:	00544e41 	0x544e41
    1b18:	5f5f7302 	0x5f5f7302
    1b1c:	5f455355 	0x5f455355
    1b20:	54524f46 	0x54524f46
    1b24:	5f594649 	0x5f594649
    1b28:	4556454c 	0x4556454c
    1b2c:	7402004c 	jalx	80130 <foobar+0x7fee4>
    1b30:	41465f5f 	0x41465f5f
    1b34:	5f524f56 	0x5f524f56
    1b38:	00445342 	0x445342
    1b3c:	5f5f7502 	0x5f5f7502
    1b40:	4e52454b 	c3	0x52454b
    1b44:	535f4c45 	0x535f4c45
    1b48:	43495254 	c0	0x1495254
    1b4c:	414e5f54 	0x414e5f54
    1b50:	0053454d 	break	0x53,0x115
    1b54:	5f5f7a01 	0x5f5f7a01
    1b58:	4e52454b 	c3	0x52454b
    1b5c:	535f4c45 	0x535f4c45
    1b60:	43495254 	c0	0x1495254
    1b64:	414e5f54 	0x414e5f54
    1b68:	2053454d 	addi	s3,v0,17741
    1b6c:	5f7e0100 	0x5f7e0100
    1b70:	4553555f 	0x4553555f
    1b74:	534e415f 	0x534e415f
    1b78:	00312049 	0x312049
    1b7c:	5f018801 	0x5f018801
    1b80:	554e475f 	0x554e475f
    1b84:	52505f43 	0x52505f43
    1b88:	51455245 	0x51455245
    1b8c:	6a616d28 	0x6a616d28
    1b90:	6e696d2c 	0x6e696d2c
    1b94:	28282029 	slti	t0,at,8233
    1b98:	4e475f5f 	c3	0x475f5f
    1b9c:	5f5f4355 	0x5f5f4355
    1ba0:	203c3c20 	addi	gp,at,15392
    1ba4:	20293631 	addi	t1,at,13873
    1ba8:	5f5f202b 	0x5f5f202b
    1bac:	43554e47 	c0	0x1554e47
    1bb0:	4e494d5f 	c3	0x494d5f
    1bb4:	5f5f524f 	0x5f5f524f
    1bb8:	203d3e20 	addi	sp,at,15904
    1bbc:	616d2828 	0x616d2828
    1bc0:	3c20296a 	0x3c20296a
    1bc4:	3631203c 	ori	s1,s1,0x203c
    1bc8:	202b2029 	addi	t3,at,8233
    1bcc:	6e696d28 	0x6e696d28
    1bd0:	01002929 	0x1002929
    1bd4:	425f01b3 	c0	0x5f01b3
    1bd8:	535f4453 	0x535f4453
    1bdc:	4352554f 	c0	0x152554f
    1be0:	00312045 	0x312045
    1be4:	5f01b401 	0x5f01b401
    1be8:	44495653 	0x44495653
    1bec:	554f535f 	0x554f535f
    1bf0:	20454352 	addi	a1,v0,17234
    1bf4:	bd010031 	0xbd010031
    1bf8:	555f5f01 	0x555f5f01
    1bfc:	495f4553 	0x495f4553
    1c00:	39434f53 	xori	v1,t2,0x4f53
    1c04:	00312039 	0x312039
    1c08:	5f01c301 	0x5f01c301
    1c0c:	4553555f 	0x4553555f
    1c10:	4f53495f 	c3	0x153495f
    1c14:	20353943 	addi	s5,at,14659
    1c18:	ca010031 	lwc2	$1,49(s0)
    1c1c:	4f505f01 	c3	0x1505f01
    1c20:	5f584953 	0x5f584953
    1c24:	52554f53 	0x52554f53
    1c28:	31204543 	andi	zero,t1,0x4543
    1c2c:	01d20100 	0x1d20100
    1c30:	534f505f 	0x534f505f
    1c34:	435f5849 	c0	0x15f5849
    1c38:	554f535f 	0x554f535f
    1c3c:	20454352 	addi	a1,v0,17234
    1c40:	38303032 	xori	s0,at,0x3032
    1c44:	004c3930 	0x4c3930
    1c48:	5f01d401 	0x5f01d401
    1c4c:	4553555f 	0x4553555f
    1c50:	534f505f 	0x534f505f
    1c54:	495f5849 	0x495f5849
    1c58:	494c504d 	0x494c504d
    1c5c:	4c544943 	0x4c544943
    1c60:	00312059 	0x312059
    1c64:	5f01d801 	0x5f01d801
    1c68:	4553555f 	0x4553555f
    1c6c:	534f505f 	0x534f505f
    1c70:	31205849 	andi	zero,t1,0x5849
    1c74:	01dc0100 	0x1dc0100
    1c78:	53555f5f 	0x53555f5f
    1c7c:	4f505f45 	c3	0x1505f45
    1c80:	32584953 	andi	t8,s2,0x4953
    1c84:	01003120 	0x1003120
    1c88:	5f5f01e0 	0x5f5f01e0
    1c8c:	5f455355 	0x5f455355
    1c90:	49534f50 	0x49534f50
    1c94:	39393158 	xori	t9,t1,0x3158
    1c98:	20393033 	addi	t9,at,12339
    1c9c:	e4010031 	swc1	$f1,49(zero)
    1ca0:	555f5f01 	0x555f5f01
    1ca4:	505f4553 	0x505f4553
    1ca8:	5849534f 	0x5849534f
    1cac:	35393931 	ori	t9,t1,0x3931
    1cb0:	31203630 	andi	zero,t1,0x3630
    1cb4:	01e80100 	0x1e80100
    1cb8:	53555f5f 	0x53555f5f
    1cbc:	4f585f45 	c3	0x1585f45
    1cc0:	324e4550 	andi	t6,s2,0x4550
    1cc4:	0031204b 	0x31204b
    1cc8:	5f01e902 	0x5f01e902
    1ccc:	4553555f 	0x4553555f
    1cd0:	4f53495f 	c3	0x153495f
    1cd4:	00393943 	0x393943
    1cd8:	5f01ea01 	0x5f01ea01
    1cdc:	4553555f 	0x4553555f
    1ce0:	4f53495f 	c3	0x153495f
    1ce4:	20393943 	addi	t9,at,14659
    1ce8:	ee010031 	swc3	$1,49(s0)
    1cec:	555f5f01 	0x555f5f01
    1cf0:	585f4553 	0x585f4553
    1cf4:	4e45504f 	c3	0x45504f
    1cf8:	20384b32 	addi	t8,at,19250
    1cfc:	ef020031 	swc3	$2,49(t8)
    1d00:	54415f01 	0x54415f01
    1d04:	454c4946 	0x454c4946
    1d08:	554f535f 	0x554f535f
    1d0c:	00454352 	0x454352
    1d10:	5f01f001 	0x5f01f001
    1d14:	49465441 	0x49465441
    1d18:	535f454c 	0x535f454c
    1d1c:	4352554f 	c0	0x152554f
    1d20:	00312045 	0x312045
    1d24:	5f029601 	0x5f029601
    1d28:	4553555f 	0x4553555f
    1d2c:	53494d5f 	0x53494d5f
    1d30:	00312043 	0x312043
    1d34:	5f029a01 	0x5f029a01
    1d38:	4553555f 	0x4553555f
    1d3c:	4453425f 	0x4453425f
    1d40:	01003120 	0x1003120
    1d44:	5f5f029e 	0x5f5f029e
    1d48:	5f455355 	0x5f455355
    1d4c:	44495653 	0x44495653
    1d50:	01003120 	0x1003120
    1d54:	5f5f02a2 	0x5f5f02a2
    1d58:	5f455355 	0x5f455355
    1d5c:	49465441 	0x49465441
    1d60:	3120454c 	andi	zero,t1,0x454c
    1d64:	02b50100 	0x2b50100
    1d68:	53555f5f 	0x53555f5f
    1d6c:	4f465f45 	c3	0x1465f45
    1d70:	46495452 	c1	0x495452
    1d74:	454c5f59 	0x454c5f59
    1d78:	204c4556 	addi	t4,v0,17750
    1d7c:	b9030030 	swr	v1,48(t0)
    1d80:	18010502 	0x18010502
    1d84:	4552505f 	0x4552505f
    1d88:	53464544 	0x53464544
    1d8c:	0020485f 	0x20485f
    1d90:	5f5f1b01 	0x5f5f1b01
    1d94:	43445453 	c0	0x1445453
    1d98:	4345495f 	c0	0x145495f
    1d9c:	3935355f 	xori	s5,t1,0x355f
    1da0:	31205f5f 	andi	zero,t1,0x5f5f
    1da4:	5f1c0100 	0x5f1c0100
    1da8:	4454535f 	0x4454535f
    1dac:	45495f43 	0x45495f43
    1db0:	35355f43 	ori	s5,t1,0x5f43
    1db4:	4f435f39 	c3	0x1435f39
    1db8:	454c504d 	0x454c504d
    1dbc:	205f5f58 	addi	ra,v0,24408
    1dc0:	01040031 	0x1040031
    1dc4:	5f5f02bc 	0x5f5f02bc
    1dc8:	43445453 	c0	0x1445453
    1dcc:	4f53495f 	c3	0x153495f
    1dd0:	3630315f 	ori	s0,s1,0x315f
    1dd4:	5f5f3634 	0x5f5f3634
    1dd8:	30303220 	andi	s0,at,0x3220
    1ddc:	4c393030 	0x4c393030
    1de0:	02c40200 	0x2c40200
    1de4:	4e475f5f 	c3	0x475f5f
    1de8:	494c5f55 	0x494c5f55
    1dec:	52415242 	0x52415242
    1df0:	005f5f59 	0x5f5f59
    1df4:	5f02c501 	0x5f02c501
    1df8:	554e475f 	0x554e475f
    1dfc:	42494c5f 	c0	0x494c5f
    1e00:	59524152 	0x59524152
    1e04:	36205f5f 	ori	zero,s1,0x5f5f
    1e08:	02c90100 	0x2c90100
    1e0c:	4c475f5f 	0x4c475f5f
    1e10:	5f434249 	0x5f434249
    1e14:	0032205f 	0x32205f
    1e18:	5f02ca01 	0x5f02ca01
    1e1c:	494c475f 	0x494c475f
    1e20:	4d5f4342 	0x4d5f4342
    1e24:	524f4e49 	0x524f4e49
    1e28:	31205f5f 	andi	zero,t1,0x5f5f
    1e2c:	cc010031 	lwc3	$1,49(zero)
    1e30:	475f5f02 	c1	0x15f5f02
    1e34:	4342494c 	c0	0x142494c
    1e38:	4552505f 	0x4552505f
    1e3c:	28514552 	slti	s1,v0,17746
    1e40:	2c6a616d 	sltiu	t2,v1,24941
    1e44:	296e696d 	slti	t6,t3,26989
    1e48:	5f282820 	0x5f282820
    1e4c:	494c475f 	0x494c475f
    1e50:	5f5f4342 	0x5f5f4342
    1e54:	203c3c20 	addi	gp,at,15392
    1e58:	20293631 	addi	t1,at,13873
    1e5c:	5f5f202b 	0x5f5f202b
    1e60:	42494c47 	c0	0x494c47
    1e64:	494d5f43 	0x494d5f43
    1e68:	5f524f4e 	0x5f524f4e
    1e6c:	3d3e205f 	0x3d3e205f
    1e70:	6d282820 	0x6d282820
    1e74:	20296a61 	addi	t1,at,27233
    1e78:	31203c3c 	andi	zero,t1,0x3c3c
    1e7c:	2b202936 	slti	zero,t9,10550
    1e80:	696d2820 	0x696d2820
    1e84:	0029296e 	0x29296e
    1e88:	5f02d401 	0x5f02d401
    1e8c:	494c475f 	0x494c475f
    1e90:	485f4342 	0x485f4342
    1e94:	5f455641 	0x5f455641
    1e98:	474e4f4c 	c1	0x14e4f4c
    1e9c:	4e4f4c5f 	c3	0x4f4c5f
    1ea0:	00312047 	0x312047
    1ea4:	0602da03 	0x602da03
    1ea8:	535f1501 	0x535f1501
    1eac:	435f5359 	c0	0x15f5359
    1eb0:	53464544 	0x53464544
    1eb4:	3120485f 	andi	zero,t1,0x485f
    1eb8:	5f240200 	0x5f240200
    1ebc:	0200505f 	0x200505f
    1ec0:	505f5f25 	0x505f5f25
    1ec4:	0100544d 	break	0x100,0x151
    1ec8:	545f5f2f 	0x545f5f2f
    1ecc:	574f5248 	0x574f5248
    1ed0:	615f5f20 	0x615f5f20
    1ed4:	69727474 	0x69727474
    1ed8:	65747562 	0x65747562
    1edc:	28205f5f 	slti	zero,at,24415
    1ee0:	6e5f5f28 	0x6e5f5f28
    1ee4:	7268746f 	0x7268746f
    1ee8:	5f5f776f 	0x5f5f776f
    1eec:	01002929 	0x1002929
    1ef0:	4e5f5f30 	c3	0x5f5f30
    1ef4:	66284854 	0x66284854
    1ef8:	20297463 	addi	t1,at,29795
    1efc:	74615f5f 	jalx	1857d7c <foobar+0x1857b30>
    1f00:	62697274 	0x62697274
    1f04:	5f657475 	0x5f657475
    1f08:	2828205f 	slti	t0,at,8287
    1f0c:	6f6e5f5f 	0x6f6e5f5f
    1f10:	6f726874 	0x6f726874
    1f14:	295f5f77 	slti	ra,t2,24439
    1f18:	63662029 	0x63662029
    1f1c:	4a010074 	c2	0x10074
    1f20:	28505f5f 	slti	s0,v0,24415
    1f24:	73677261 	0x73677261
    1f28:	72612029 	0x72612029
    1f2c:	01007367 	0x1007367
    1f30:	505f5f4b 	0x505f5f4b
    1f34:	6128544d 	0x6128544d
    1f38:	29736772 	slti	s3,t3,26482
    1f3c:	67726120 	0x67726120
    1f40:	50010073 	0x50010073
    1f44:	4f435f5f 	c3	0x1435f5f
    1f48:	5441434e 	0x5441434e
    1f4c:	792c7828 	0x792c7828
    1f50:	20782029 	addi	t8,v1,8233
    1f54:	79202323 	0x79202323
    1f58:	5f510100 	0x5f510100
    1f5c:	5254535f 	0x5254535f
    1f60:	28474e49 	slti	a3,v0,20041
    1f64:	23202978 	addi	zero,t9,10616
    1f68:	54010078 	0x54010078
    1f6c:	74705f5f 	jalx	1c17d7c <foobar+0x1c17b30>
    1f70:	20745f72 	addi	s4,v1,24434
    1f74:	64696f76 	0x64696f76
    1f78:	01002a20 	0x1002a20
    1f7c:	6c5f5f55 	0x6c5f5f55
    1f80:	5f676e6f 	0x5f676e6f
    1f84:	62756f64 	0x62756f64
    1f88:	745f656c 	jalx	17d95b0 <foobar+0x17d9364>
    1f8c:	6e6f6c20 	0x6e6f6c20
    1f90:	6f642067 	0x6f642067
    1f94:	656c6275 	0x656c6275
    1f98:	5f5d0100 	0x5f5d0100
    1f9c:	4745425f 	c1	0x145425f
    1fa0:	445f4e49 	0x445f4e49
    1fa4:	534c4345 	0x534c4345
    1fa8:	5e010020 	0x5e010020
    1fac:	4e455f5f 	c3	0x455f5f
    1fb0:	45445f44 	0x45445f44
    1fb4:	20534c43 	addi	s3,v0,19523
    1fb8:	5f720100 	0x5f720100
    1fbc:	4745425f 	c1	0x145425f
    1fc0:	4e5f4e49 	c3	0x5f4e49
    1fc4:	53454d41 	0x53454d41
    1fc8:	45434150 	0x45434150
    1fcc:	4454535f 	0x4454535f
    1fd0:	73010020 	0x73010020
    1fd4:	4e455f5f 	c3	0x455f5f
    1fd8:	414e5f44 	0x414e5f44
    1fdc:	5053454d 	0x5053454d
    1fe0:	5f454341 	0x5f454341
    1fe4:	20445453 	addi	a0,v0,21587
    1fe8:	5f740100 	0x5f740100
    1fec:	4953555f 	0x4953555f
    1ff0:	4e5f474e 	c3	0x5f474e
    1ff4:	53454d41 	0x53454d41
    1ff8:	45434150 	0x45434150
    1ffc:	4454535f 	0x4454535f
    2000:	6d616e28 	0x6d616e28
    2004:	00202965 	0x202965
    2008:	5f5f7501 	0x5f5f7501
    200c:	49474542 	0x49474542
    2010:	414e5f4e 	0x414e5f4e
    2014:	5053454d 	0x5053454d
    2018:	5f454341 	0x5f454341
    201c:	20393943 	addi	t9,at,14659
    2020:	5f760100 	0x5f760100
    2024:	444e455f 	0x444e455f
    2028:	4d414e5f 	0x4d414e5f
    202c:	41505345 	0x41505345
    2030:	435f4543 	c0	0x15f4543
    2034:	00203939 	0x203939
    2038:	5f5f7701 	0x5f5f7701
    203c:	4e495355 	c3	0x495355
    2040:	414e5f47 	0x414e5f47
    2044:	5053454d 	0x5053454d
    2048:	5f454341 	0x5f454341
    204c:	28393943 	slti	t9,at,14659
    2050:	656d616e 	0x656d616e
    2054:	01002029 	0x1002029
    2058:	625f5f7d 	0x625f5f7d
    205c:	646e756f 	0x646e756f
    2060:	00206465 	0x206465
    2064:	5f5f7e01 	0x5f5f7e01
    2068:	6f626e75 	0x6f626e75
    206c:	65646e75 	0x65646e75
    2070:	01002064 	0x1002064
    2074:	705f5f7f 	0x705f5f7f
    2078:	61767274 	0x61767274
    207c:	2065756c 	addi	a1,v1,30060
    2080:	01840100 	0x1840100
    2084:	6f625f5f 	0x6f625f5f
    2088:	74702873 	jalx	1c0a1cc <foobar+0x1c09f80>
    208c:	5f202972 	0x5f202972
    2090:	6975625f 	0x6975625f
    2094:	6e69746c 	0x6e69746c
    2098:	6a626f5f 	0x6a626f5f
    209c:	5f746365 	0x5f746365
    20a0:	657a6973 	0x657a6973
    20a4:	74702820 	jalx	1c0a080 <foobar+0x1c09e34>
    20a8:	5f202c72 	0x5f202c72
    20ac:	4553555f 	0x4553555f
    20b0:	524f465f 	0x524f465f
    20b4:	59464954 	0x59464954
    20b8:	56454c5f 	0x56454c5f
    20bc:	3e204c45 	0x3e204c45
    20c0:	00293120 	0x293120
    20c4:	5f018501 	0x5f018501
    20c8:	736f625f 	0x736f625f
    20cc:	74702830 	jalx	1c0a0c0 <foobar+0x1c09e74>
    20d0:	5f202972 	0x5f202972
    20d4:	6975625f 	0x6975625f
    20d8:	6e69746c 	0x6e69746c
    20dc:	6a626f5f 	0x6a626f5f
    20e0:	5f746365 	0x5f746365
    20e4:	657a6973 	0x657a6973
    20e8:	74702820 	jalx	1c0a080 <foobar+0x1c09e34>
    20ec:	30202c72 	andi	zero,at,0x2c72
    20f0:	88010029 	lwl	at,41(zero)
    20f4:	775f5f01 	jalx	d7d7c04 <foobar+0xd7d79b8>
    20f8:	646e7261 	0x646e7261
    20fc:	286c6365 	slti	t4,v1,25445
    2100:	656d616e 	0x656d616e
    2104:	67736d2c 	0x67736d2c
    2108:	78652029 	0x78652029
    210c:	6e726574 	0x6e726574
    2110:	696f7620 	0x696f7620
    2114:	616e2064 	0x616e2064
    2118:	2820656d 	slti	zero,at,25965
    211c:	64696f76 	0x64696f76
    2120:	5f5f2029 	0x5f5f2029
    2124:	72747461 	0x72747461
    2128:	74756269 	jalx	1d589a4 <foobar+0x1d58758>
    212c:	285f5f65 	slti	ra,v0,24421
    2130:	775f5f28 	jalx	d7d7ca0 <foobar+0xd7d7a54>
    2134:	696e7261 	0x696e7261
    2138:	5f5f676e 	0x5f5f676e
    213c:	736d2820 	0x736d2820
    2140:	29292967 	slti	t1,t1,10599
    2144:	018a0100 	0x18a0100
    2148:	61775f5f 	0x61775f5f
    214c:	74616e72 	jalx	185b9c8 <foobar+0x185b77c>
    2150:	6d287274 	0x6d287274
    2154:	20296773 	addi	t1,at,26483
    2158:	74615f5f 	jalx	1857d7c <foobar+0x1857b30>
    215c:	62697274 	0x62697274
    2160:	5f657475 	0x5f657475
    2164:	5f28285f 	0x5f28285f
    2168:	7261775f 	0x7261775f
    216c:	676e696e 	0x676e696e
    2170:	28205f5f 	slti	zero,at,24415
    2174:	2967736d 	slti	a3,t3,29549
    2178:	01002929 	0x1002929
    217c:	5f5f018b 	0x5f5f018b
    2180:	6f727265 	0x6f727265
    2184:	63656472 	0x63656472
    2188:	616e286c 	0x616e286c
    218c:	6d2c656d 	0x6d2c656d
    2190:	20296773 	addi	t1,at,26483
    2194:	65747865 	0x65747865
    2198:	76206e72 	jalx	881b9c8 <foobar+0x881b77c>
    219c:	2064696f 	addi	a0,v1,26991
    21a0:	656d616e 	0x656d616e
    21a4:	6f762820 	0x6f762820
    21a8:	20296469 	addi	t1,at,25705
    21ac:	74615f5f 	jalx	1857d7c <foobar+0x1857b30>
    21b0:	62697274 	0x62697274
    21b4:	5f657475 	0x5f657475
    21b8:	5f28285f 	0x5f28285f
    21bc:	7272655f 	0x7272655f
    21c0:	5f5f726f 	0x5f5f726f
    21c4:	736d2820 	0x736d2820
    21c8:	29292967 	slti	t1,t1,10599
    21cc:	01960100 	0x1960100
    21d0:	6c665f5f 	0x6c665f5f
    21d4:	72617865 	0x72617865
    21d8:	5d5b2072 	0x5d5b2072
    21dc:	01b10100 	0x1b10100
    21e0:	45525f5f 	0x45525f5f
    21e4:	45524944 	0x45524944
    21e8:	6e285443 	0x6e285443
    21ec:	2c656d61 	sltiu	a1,v1,28001
    21f0:	746f7270 	jalx	1bdc9c0 <foobar+0x1bdc774>
    21f4:	6c612c6f 	0x6c612c6f
    21f8:	29736169 	slti	s3,t3,24937
    21fc:	6d616e20 	0x6d616e20
    2200:	72702065 	0x72702065
    2204:	206f746f 	addi	t7,v1,29807
    2208:	73615f5f 	0x73615f5f
    220c:	205f5f6d 	addi	ra,v0,24429
    2210:	415f5f28 	0x415f5f28
    2214:	414e4d53 	0x414e4d53
    2218:	2820454d 	slti	zero,at,17741
    221c:	696c6123 	0x696c6123
    2220:	29297361 	slti	t1,t1,29537
    2224:	01b60100 	0x1b60100
    2228:	45525f5f 	0x45525f5f
    222c:	45524944 	0x45524944
    2230:	4e5f5443 	c3	0x5f5443
    2234:	6e284854 	0x6e284854
    2238:	2c656d61 	sltiu	a1,v1,28001
    223c:	746f7270 	jalx	1bdc9c0 <foobar+0x1bdc774>
    2240:	6c612c6f 	0x6c612c6f
    2244:	29736169 	slti	s3,t3,24937
    2248:	6d616e20 	0x6d616e20
    224c:	72702065 	0x72702065
    2250:	206f746f 	addi	t7,v1,29807
    2254:	73615f5f 	0x73615f5f
    2258:	205f5f6d 	addi	ra,v0,24429
    225c:	415f5f28 	0x415f5f28
    2260:	414e4d53 	0x414e4d53
    2264:	2820454d 	slti	zero,at,17741
    2268:	696c6123 	0x696c6123
    226c:	29297361 	slti	t1,t1,29537
    2270:	545f5f20 	0x545f5f20
    2274:	574f5248 	0x574f5248
    2278:	01b90100 	0x1b90100
    227c:	53415f5f 	0x53415f5f
    2280:	4d414e4d 	0x4d414e4d
    2284:	6e632845 	0x6e632845
    2288:	29656d61 	slti	a1,t3,28001
    228c:	415f5f20 	0x415f5f20
    2290:	414e4d53 	0x414e4d53
    2294:	2032454d 	addi	s2,at,17741
    2298:	555f5f28 	0x555f5f28
    229c:	5f524553 	0x5f524553
    22a0:	4542414c 	0x4542414c
    22a4:	52505f4c 	0x52505f4c
    22a8:	58494645 	0x58494645
    22ac:	202c5f5f 	addi	t4,at,24415
    22b0:	6d616e63 	0x6d616e63
    22b4:	01002965 	0x1002965
    22b8:	5f5f01ba 	0x5f5f01ba
    22bc:	4e4d5341 	c3	0x4d5341
    22c0:	32454d41 	andi	a1,s2,0x4d41
    22c4:	65727028 	0x65727028
    22c8:	2c786966 	sltiu	t8,v1,26982
    22cc:	6d616e63 	0x6d616e63
    22d0:	5f202965 	0x5f202965
    22d4:	5254535f 	0x5254535f
    22d8:	20474e49 	addi	a3,v0,20041
    22dc:	65727028 	0x65727028
    22e0:	29786966 	slti	t8,t3,26982
    22e4:	616e6320 	0x616e6320
    22e8:	0100656d 	0x100656d
    22ec:	5f5f01cf 	0x5f5f01cf
    22f0:	72747461 	0x72747461
    22f4:	74756269 	jalx	1d589a4 <foobar+0x1d58758>
    22f8:	616d5f65 	0x616d5f65
    22fc:	636f6c6c 	0x636f6c6c
    2300:	5f205f5f 	0x5f205f5f
    2304:	7474615f 	jalx	1d1857c <foobar+0x1d18330>
    2308:	75626972 	jalx	589a5c8 <foobar+0x589a37c>
    230c:	5f5f6574 	0x5f5f6574
    2310:	5f282820 	0x5f282820
    2314:	6c616d5f 	0x6c616d5f
    2318:	5f636f6c 	0x5f636f6c
    231c:	0029295f 	0x29295f
    2320:	5f01d801 	0x5f01d801
    2324:	7474615f 	jalx	1d1857c <foobar+0x1d18330>
    2328:	75626972 	jalx	589a5c8 <foobar+0x589a37c>
    232c:	705f6574 	0x705f6574
    2330:	5f657275 	0x5f657275
    2334:	5f5f205f 	0x5f5f205f
    2338:	72747461 	0x72747461
    233c:	74756269 	jalx	1d589a4 <foobar+0x1d58758>
    2340:	205f5f65 	addi	ra,v0,24421
    2344:	5f5f2828 	0x5f5f2828
    2348:	65727570 	0x65727570
    234c:	29295f5f 	slti	t1,t1,24415
    2350:	01e10100 	0x1e10100
    2354:	74615f5f 	jalx	1857d7c <foobar+0x1857b30>
    2358:	62697274 	0x62697274
    235c:	5f657475 	0x5f657475
    2360:	64657375 	0x64657375
    2364:	5f205f5f 	0x5f205f5f
    2368:	7474615f 	jalx	1d1857c <foobar+0x1d18330>
    236c:	75626972 	jalx	589a5c8 <foobar+0x589a37c>
    2370:	5f5f6574 	0x5f5f6574
    2374:	5f282820 	0x5f282820
    2378:	6573755f 	0x6573755f
    237c:	295f5f64 	slti	ra,t2,24420
    2380:	e2010029 	swc0	$1,41(s0)
    2384:	615f5f01 	0x615f5f01
    2388:	69727474 	0x69727474
    238c:	65747562 	0x65747562
    2390:	696f6e5f 	0x696f6e5f
    2394:	6e696c6e 	0x6e696c6e
    2398:	205f5f65 	addi	ra,v0,24421
    239c:	74615f5f 	jalx	1857d7c <foobar+0x1857b30>
    23a0:	62697274 	0x62697274
    23a4:	5f657475 	0x5f657475
    23a8:	2828205f 	slti	t0,at,8287
    23ac:	6f6e5f5f 	0x6f6e5f5f
    23b0:	696c6e69 	0x696c6e69
    23b4:	5f5f656e 	0x5f5f656e
    23b8:	01002929 	0x1002929
    23bc:	5f5f01ea 	0x5f5f01ea
    23c0:	72747461 	0x72747461
    23c4:	74756269 	jalx	1d589a4 <foobar+0x1d58758>
    23c8:	65645f65 	0x65645f65
    23cc:	63657270 	0x63657270
    23d0:	64657461 	0x64657461
    23d4:	5f205f5f 	0x5f205f5f
    23d8:	7474615f 	jalx	1d1857c <foobar+0x1d18330>
    23dc:	75626972 	jalx	589a5c8 <foobar+0x589a37c>
    23e0:	5f5f6574 	0x5f5f6574
    23e4:	5f282820 	0x5f282820
    23e8:	7065645f 	0x7065645f
    23ec:	61636572 	0x61636572
    23f0:	5f646574 	0x5f646574
    23f4:	0029295f 	0x29295f
    23f8:	5f01f601 	0x5f01f601
    23fc:	7474615f 	jalx	1d1857c <foobar+0x1d18330>
    2400:	75626972 	jalx	589a5c8 <foobar+0x589a37c>
    2404:	665f6574 	0x665f6574
    2408:	616d726f 	0x616d726f
    240c:	72615f74 	0x72615f74
    2410:	285f5f67 	slti	ra,v0,24423
    2414:	5f202978 	0x5f202978
    2418:	7474615f 	jalx	1d1857c <foobar+0x1d18330>
    241c:	75626972 	jalx	589a5c8 <foobar+0x589a37c>
    2420:	5f5f6574 	0x5f5f6574
    2424:	5f282820 	0x5f282820
    2428:	726f665f 	0x726f665f
    242c:	5f74616d 	0x5f74616d
    2430:	5f677261 	0x5f677261
    2434:	7828205f 	0x7828205f
    2438:	00292929 	0x292929
    243c:	5f028001 	0x5f028001
    2440:	7474615f 	jalx	1d1857c <foobar+0x1d18330>
    2444:	75626972 	jalx	589a5c8 <foobar+0x589a37c>
    2448:	665f6574 	0x665f6574
    244c:	616d726f 	0x616d726f
    2450:	74735f74 	jalx	1cd7dd0 <foobar+0x1cd7b84>
    2454:	6f6d6672 	0x6f6d6672
    2458:	285f5f6e 	slti	ra,v0,24430
    245c:	29622c61 	slti	v0,t3,11361
    2460:	615f5f20 	0x615f5f20
    2464:	69727474 	0x69727474
    2468:	65747562 	0x65747562
    246c:	28205f5f 	slti	zero,at,24415
    2470:	665f5f28 	0x665f5f28
    2474:	616d726f 	0x616d726f
    2478:	205f5f74 	addi	ra,v0,24436
    247c:	735f5f28 	0x735f5f28
    2480:	6d667274 	0x6d667274
    2484:	5f5f6e6f 	0x5f5f6e6f
    2488:	2c61202c 	sltiu	at,v1,8236
    248c:	29296220 	slti	t1,t1,25120
    2490:	89010029 	lwl	at,41(t0)
    2494:	6e5f5f02 	0x6e5f5f02
    2498:	756e6e6f 	jalx	5b9b9bc <foobar+0x5b9b770>
    249c:	70286c6c 	0x70286c6c
    24a0:	6d617261 	0x6d617261
    24a4:	5f202973 	0x5f202973
    24a8:	7474615f 	jalx	1d1857c <foobar+0x1d18330>
    24ac:	75626972 	jalx	589a5c8 <foobar+0x589a37c>
    24b0:	5f5f6574 	0x5f5f6574
    24b4:	5f282820 	0x5f282820
    24b8:	6e6f6e5f 	0x6e6f6e5f
    24bc:	6c6c756e 	0x6c6c756e
    24c0:	70205f5f 	0x70205f5f
    24c4:	6d617261 	0x6d617261
    24c8:	00292973 	0x292973
    24cc:	5f029101 	0x5f029101
    24d0:	7474615f 	jalx	1d1857c <foobar+0x1d18330>
    24d4:	75626972 	jalx	589a5c8 <foobar+0x589a37c>
    24d8:	775f6574 	jalx	d7d95d0 <foobar+0xd7d9384>
    24dc:	5f6e7261 	0x5f6e7261
    24e0:	73756e75 	0x73756e75
    24e4:	725f6465 	0x725f6465
    24e8:	6c757365 	0x6c757365
    24ec:	205f5f74 	addi	ra,v0,24436
    24f0:	74615f5f 	jalx	1857d7c <foobar+0x1857b30>
    24f4:	62697274 	0x62697274
    24f8:	5f657475 	0x5f657475
    24fc:	2828205f 	slti	t0,at,8287
    2500:	61775f5f 	0x61775f5f
    2504:	755f6e72 	jalx	57db9c8 <foobar+0x57db77c>
    2508:	6573756e 	0x6573756e
    250c:	65725f64 	0x65725f64
    2510:	746c7573 	jalx	1b1d5cc <foobar+0x1b1d380>
    2514:	29295f5f 	slti	t1,t1,24415
    2518:	029a0100 	0x29a0100
    251c:	75775f5f 	jalx	5dd7d7c <foobar+0x5dd7b30>
    2520:	01002072 	0x1002072
    2524:	5f5f029f 	0x5f5f029f
    2528:	61776c61 	0x61776c61
    252c:	695f7379 	0x695f7379
    2530:	6e696c6e 	0x6e696c6e
    2534:	5f5f2065 	0x5f5f2065
    2538:	696c6e69 	0x696c6e69
    253c:	5f20656e 	0x5f20656e
    2540:	7474615f 	jalx	1d1857c <foobar+0x1d18330>
    2544:	75626972 	jalx	589a5c8 <foobar+0x589a37c>
    2548:	5f5f6574 	0x5f5f6574
    254c:	5f282820 	0x5f282820
    2550:	776c615f 	jalx	db1857c <foobar+0xdb18330>
    2554:	5f737961 	0x5f737961
    2558:	696c6e69 	0x696c6e69
    255c:	5f5f656e 	0x5f5f656e
    2560:	01002929 	0x1002929
    2564:	5f5f02a8 	0x5f5f02a8
    2568:	65747865 	0x65747865
    256c:	695f6e72 	0x695f6e72
    2570:	6e696c6e 	0x6e696c6e
    2574:	78652065 	0x78652065
    2578:	6e726574 	0x6e726574
    257c:	695f5f20 	0x695f5f20
    2580:	6e696c6e 	0x6e696c6e
    2584:	5f5f2065 	0x5f5f2065
    2588:	72747461 	0x72747461
    258c:	74756269 	jalx	1d589a4 <foobar+0x1d58758>
    2590:	205f5f65 	addi	ra,v0,24421
    2594:	5f5f2828 	0x5f5f2828
    2598:	5f756e67 	0x5f756e67
    259c:	696c6e69 	0x696c6e69
    25a0:	5f5f656e 	0x5f5f656e
    25a4:	01002929 	0x1002929
    25a8:	5f5f02aa 	0x5f5f02aa
    25ac:	65747865 	0x65747865
    25b0:	615f6e72 	0x615f6e72
    25b4:	7961776c 	0x7961776c
    25b8:	6e695f73 	0x6e695f73
    25bc:	656e696c 	0x656e696c
    25c0:	74786520 	jalx	1e19480 <foobar+0x1e19234>
    25c4:	206e7265 	addi	t6,v1,29285
    25c8:	6c615f5f 	0x6c615f5f
    25cc:	73796177 	0x73796177
    25d0:	6c6e695f 	0x6c6e695f
    25d4:	20656e69 	addi	a1,v1,28265
    25d8:	74615f5f 	jalx	1857d7c <foobar+0x1857b30>
    25dc:	62697274 	0x62697274
    25e0:	5f657475 	0x5f657475
    25e4:	2828205f 	slti	t0,at,8287
    25e8:	6e675f5f 	0x6e675f5f
    25ec:	6e695f75 	0x6e695f75
    25f0:	656e696c 	0x656e696c
    25f4:	202c5f5f 	addi	t4,at,24415
    25f8:	72615f5f 	0x72615f5f
    25fc:	69666974 	0x69666974
    2600:	6c616963 	0x6c616963
    2604:	29295f5f 	slti	t1,t1,24415
    2608:	02be0100 	0x2be0100
    260c:	61765f5f 	0x61765f5f
    2610:	6772615f 	0x6772615f
    2614:	6361705f 	0x6361705f
    2618:	2029286b 	addi	t1,at,10347
    261c:	75625f5f 	jalx	5897d7c <foobar+0x5897b30>
    2620:	69746c69 	0x69746c69
    2624:	61765f6e 	0x61765f6e
    2628:	6772615f 	0x6772615f
    262c:	6361705f 	0x6361705f
    2630:	2928206b 	slti	t0,t1,8299
    2634:	02bf0100 	0x2bf0100
    2638:	61765f5f 	0x61765f5f
    263c:	6772615f 	0x6772615f
    2640:	6361705f 	0x6361705f
    2644:	656c5f6b 	0x656c5f6b
    2648:	2029286e 	addi	t1,at,10350
    264c:	75625f5f 	jalx	5897d7c <foobar+0x5897b30>
    2650:	69746c69 	0x69746c69
    2654:	61765f6e 	0x61765f6e
    2658:	6772615f 	0x6772615f
    265c:	6361705f 	0x6361705f
    2660:	656c5f6b 	0x656c5f6b
    2664:	2928206e 	slti	t0,t1,8302
    2668:	02d30100 	0x2d30100
    266c:	65725f5f 	0x65725f5f
    2670:	69727473 	0x69727473
    2674:	615f7463 	0x615f7463
    2678:	5f207272 	0x5f207272
    267c:	7365725f 	0x7365725f
    2680:	63697274 	0x63697274
    2684:	e1030074 	swc0	$3,116(t0)
    2688:	13010702 	beq	t8,at,4294 <.debug_macinfo+0x4294>
    268c:	4f575f5f 	c3	0x1575f5f
    2690:	49534452 	0x49534452
    2694:	5f20455a 	0x5f20455a
    2698:	5350494d 	0x5350494d
    269c:	505a535f 	0x505a535f
    26a0:	04005254 	bltz	zero,16ff4 <foobar+0x16da8>
    26a4:	5f02f701 	0x5f02f701
    26a8:	42444c5f 	c0	0x444c5f
    26ac:	45525f4c 	0x45525f4c
    26b0:	31524944 	andi	s2,t2,0x4944
    26b4:	6d616e28 	0x6d616e28
    26b8:	72702c65 	0x72702c65
    26bc:	2c6f746f 	sltiu	t7,v1,29807
    26c0:	61696c61 	0x61696c61
    26c4:	6e202973 	0x6e202973
    26c8:	20656d61 	addi	a1,v1,28001
    26cc:	746f7270 	jalx	1bdc9c0 <foobar+0x1bdc774>
    26d0:	f801006f 	0xf801006f
    26d4:	4c5f5f02 	0x4c5f5f02
    26d8:	5f4c4244 	0x5f4c4244
    26dc:	49444552 	0x49444552
    26e0:	616e2852 	0x616e2852
    26e4:	702c656d 	0x702c656d
    26e8:	6f746f72 	0x6f746f72
    26ec:	616e2029 	0x616e2029
    26f0:	7020656d 	0x7020656d
    26f4:	6f746f72 	0x6f746f72
    26f8:	02f90100 	0x2f90100
    26fc:	444c5f5f 	0x444c5f5f
    2700:	525f4c42 	0x525f4c42
    2704:	52494445 	0x52494445
    2708:	544e5f31 	0x544e5f31
    270c:	616e2848 	0x616e2848
    2710:	702c656d 	0x702c656d
    2714:	6f746f72 	0x6f746f72
    2718:	696c612c 	0x696c612c
    271c:	20297361 	addi	t1,at,29537
    2720:	656d616e 	0x656d616e
    2724:	6f727020 	0x6f727020
    2728:	5f206f74 	0x5f206f74
    272c:	5248545f 	0x5248545f
    2730:	0100574f 	0x100574f
    2734:	5f5f02fa 	0x5f5f02fa
    2738:	4c42444c 	0x4c42444c
    273c:	4445525f 	0x4445525f
    2740:	4e5f5249 	c3	0x5f5249
    2744:	6e284854 	0x6e284854
    2748:	2c656d61 	sltiu	a1,v1,28001
    274c:	746f7270 	jalx	1bdc9c0 <foobar+0x1bdc774>
    2750:	6e20296f 	0x6e20296f
    2754:	20656d61 	addi	a1,v1,28001
    2758:	746f7270 	jalx	1bdc9c0 <foobar+0x1bdc774>
    275c:	5f5f206f 	0x5f5f206f
    2760:	4f524854 	c3	0x1524854
    2764:	fb010057 	0xfb010057
    2768:	4c5f5f02 	0x4c5f5f02
    276c:	5f4c4244 	0x5f4c4244
    2770:	49444552 	0x49444552
    2774:	45445f52 	0x45445f52
    2778:	6e284c43 	0x6e284c43
    277c:	29656d61 	slti	a1,t3,28001
    2780:	fd010020 	0xfd010020
    2784:	525f5f02 	0x525f5f02
    2788:	52494445 	0x52494445
    278c:	5f544345 	0x5f544345
    2790:	4c42444c 	0x4c42444c
    2794:	6d616e28 	0x6d616e28
    2798:	72702c65 	0x72702c65
    279c:	2c6f746f 	sltiu	t7,v1,29807
    27a0:	61696c61 	0x61696c61
    27a4:	5f202973 	0x5f202973
    27a8:	4445525f 	0x4445525f
    27ac:	43455249 	c0	0x1455249
    27b0:	6e282054 	0x6e282054
    27b4:	2c656d61 	sltiu	a1,v1,28001
    27b8:	6f727020 	0x6f727020
    27bc:	202c6f74 	addi	t4,at,28532
    27c0:	61696c61 	0x61696c61
    27c4:	01002973 	0x1002973
    27c8:	5f5f02fe 	0x5f5f02fe
    27cc:	49444552 	0x49444552
    27d0:	54434552 	0x54434552
    27d4:	48544e5f 	0x48544e5f
    27d8:	42444c5f 	c0	0x444c5f
    27dc:	616e284c 	0x616e284c
    27e0:	702c656d 	0x702c656d
    27e4:	6f746f72 	0x6f746f72
    27e8:	696c612c 	0x696c612c
    27ec:	20297361 	addi	t1,at,29537
    27f0:	45525f5f 	0x45525f5f
    27f4:	45524944 	0x45524944
    27f8:	4e5f5443 	c3	0x5f5443
    27fc:	28204854 	slti	zero,at,18516
    2800:	656d616e 	0x656d616e
    2804:	7270202c 	0x7270202c
    2808:	2c6f746f 	sltiu	t7,v1,29807
    280c:	696c6120 	0x696c6120
    2810:	00297361 	0x297361
    2814:	02fa0304 	0x2fa0304
    2818:	5f0a0108 	0x5f0a0108
    281c:	7574735f 	jalx	5d1cd7c <foobar+0x5d1cb30>
    2820:	68635f62 	0x68635f62
    2824:	67616c66 	0x67616c66
    2828:	01002073 	0x1002073
    282c:	735f5f0b 	0x735f5f0b
    2830:	5f627574 	0x5f627574
    2834:	74746166 	jalx	1d18598 <foobar+0x1d1834c>
    2838:	20686361 	addi	t0,v1,25441
    283c:	5f0c0100 	0x5f0c0100
    2840:	7574735f 	jalx	5d1cd7c <foobar+0x5d1cb30>
    2844:	63665f62 	0x63665f62
    2848:	616c6668 	0x616c6668
    284c:	00207367 	0x207367
    2850:	5f5f0d01 	0x5f5f0d01
    2854:	62757473 	0x62757473
    2858:	6564665f 	0x6564665f
    285c:	68636174 	0x68636174
    2860:	0e010020 	jal	8040080 <foobar+0x803fe34>
    2864:	74735f5f 	jalx	1cd7d7c <foobar+0x1cd7b30>
    2868:	675f6275 	0x675f6275
    286c:	20797474 	addi	t9,v1,29812
    2870:	5f0f0100 	0x5f0f0100
    2874:	7574735f 	jalx	5d1cd7c <foobar+0x5d1cb30>
    2878:	636c5f62 	0x636c5f62
    287c:	646f6d68 	0x646f6d68
    2880:	10010020 	beq	zero,at,2904 <.debug_macinfo+0x2904>
    2884:	74735f5f 	jalx	1cd7d7c <foobar+0x1cd7b30>
    2888:	725f6275 	0x725f6275
    288c:	6b6f7665 	0x6b6f7665
    2890:	01002065 	0x1002065
    2894:	735f5f11 	0x735f5f11
    2898:	5f627574 	0x5f627574
    289c:	6c746573 	0x6c746573
    28a0:	6e69676f 	0x6e69676f
    28a4:	12010020 	beq	s0,at,2928 <.debug_macinfo+0x2928>
    28a8:	74735f5f 	jalx	1cd7d7c <foobar+0x1cd7b30>
    28ac:	735f6275 	0x735f6275
    28b0:	65726769 	0x65726769
    28b4:	6e727574 	0x6e727574
    28b8:	13010020 	beq	t8,at,293c <.debug_macinfo+0x293c>
    28bc:	74735f5f 	jalx	1cd7d7c <foobar+0x1cd7b30>
    28c0:	735f6275 	0x735f6275
    28c4:	206b7473 	addi	t3,v1,29811
    28c8:	5f140100 	0x5f140100
    28cc:	7574735f 	jalx	5d1cd7c <foobar+0x5d1cb30>
    28d0:	74735f62 	jalx	1cd7d88 <foobar+0x1cd7b3c>
    28d4:	00207974 	0x207974
    28d8:	1c010404 	0x1c010404
    28dc:	656e5f5f 	0x656e5f5f
    28e0:	735f6465 	0x735f6465
    28e4:	5f657a69 	0x5f657a69
    28e8:	01002074 	0x1002074
    28ec:	6e5f5f1e 	0x6e5f5f1e
    28f0:	5f646565 	0x5f646565
    28f4:	61686377 	0x61686377
    28f8:	20745f72 	addi	s4,v1,24434
    28fc:	5f1f0100 	0x5f1f0100
    2900:	65656e5f 	0x65656e5f
    2904:	554e5f64 	0x554e5f64
    2908:	00204c4c 	syscall	0x8131
    290c:	01092103 	0x1092103
    2910:	5f5f01ba 	0x5f5f01ba
    2914:	657a6973 	0x657a6973
    2918:	5f5f745f 	0x5f5f745f
    291c:	bb010020 	swr	at,32(t8)
    2920:	535f5f01 	0x535f5f01
    2924:	5f455a49 	0x5f455a49
    2928:	205f5f54 	addi	ra,v0,24404
    292c:	01bc0100 	0x1bc0100
    2930:	5a49535f 	0x5a49535f
    2934:	20545f45 	addi	s4,v0,24389
    2938:	01bd0100 	0x1bd0100
    293c:	5359535f 	0x5359535f
    2940:	5a49535f 	0x5a49535f
    2944:	5f545f45 	0x5f545f45
    2948:	01002048 	0x1002048
    294c:	545f01be 	0x545f01be
    2950:	5a49535f 	0x5a49535f
    2954:	00205f45 	0x205f45
    2958:	5f01bf01 	0x5f01bf01
    295c:	49535f54 	0x49535f54
    2960:	0020455a 	0x20455a
    2964:	5f01c001 	0x5f01c001
    2968:	5a49535f 	0x5a49535f
    296c:	20545f45 	addi	s4,v0,24389
    2970:	01c10100 	0x1c10100
    2974:	5a49535f 	0x5a49535f
    2978:	5f545f45 	0x5f545f45
    297c:	c2010020 	lwc0	$1,32(s0)
    2980:	53425f01 	0x53425f01
    2984:	49535f44 	0x49535f44
    2988:	545f455a 	0x545f455a
    298c:	0100205f 	0x100205f
    2990:	535f01c3 	0x535f01c3
    2994:	5f455a49 	0x5f455a49
    2998:	45445f54 	0x45445f54
    299c:	454e4946 	0x454e4946
    29a0:	00205f44 	0x205f44
    29a4:	5f01c401 	0x5f01c401
    29a8:	455a4953 	0x455a4953
    29ac:	445f545f 	0x445f545f
    29b0:	4e494645 	c3	0x494645
    29b4:	00204445 	0x204445
    29b8:	5f01c501 	0x5f01c501
    29bc:	5f445342 	0x5f445342
    29c0:	455a4953 	0x455a4953
    29c4:	445f545f 	0x445f545f
    29c8:	4e494645 	c3	0x494645
    29cc:	205f4445 	addi	ra,v0,17477
    29d0:	01c60100 	0x1c60100
    29d4:	5a49535f 	0x5a49535f
    29d8:	5f545f45 	0x5f545f45
    29dc:	4c434544 	0x4c434544
    29e0:	44455241 	0x44455241
    29e4:	c7010020 	lwc1	$f1,32(t8)
    29e8:	5f5f5f01 	0x5f5f5f01
    29ec:	5f746e69 	0x5f746e69
    29f0:	657a6973 	0x657a6973
    29f4:	685f745f 	0x685f745f
    29f8:	c8010020 	lwc2	$1,32(zero)
    29fc:	43475f01 	c0	0x1475f01
    2a00:	49535f43 	0x49535f43
    2a04:	545f455a 	0x545f455a
    2a08:	c9010020 	lwc2	$1,32(t0)
    2a0c:	49535f01 	0x49535f01
    2a10:	5f54455a 	0x5f54455a
    2a14:	cd010020 	lwc3	$1,32(t0)
    2a18:	735f5f01 	0x735f5f01
    2a1c:	5f657a69 	0x5f657a69
    2a20:	02002074 	0x2002074
    2a24:	5f5f01e9 	0x5f5f01e9
    2a28:	6465656e 	0x6465656e
    2a2c:	7a69735f 	0x7a69735f
    2a30:	00745f65 	0x745f65
    2a34:	5f028601 	0x5f028601
    2a38:	6863775f 	0x6863775f
    2a3c:	745f7261 	jalx	17dc984 <foobar+0x17dc738>
    2a40:	00205f5f 	0x205f5f
    2a44:	5f028701 	0x5f028701
    2a48:	4843575f 	0x4843575f
    2a4c:	545f5241 	0x545f5241
    2a50:	00205f5f 	0x205f5f
    2a54:	5f028801 	0x5f028801
    2a58:	41484357 	0x41484357
    2a5c:	20545f52 	addi	s4,v0,24402
    2a60:	02890100 	0x2890100
    2a64:	575f545f 	0x575f545f
    2a68:	52414843 	0x52414843
    2a6c:	0100205f 	0x100205f
    2a70:	545f028a 	0x545f028a
    2a74:	4843575f 	0x4843575f
    2a78:	00205241 	0x205241
    2a7c:	5f028b01 	0x5f028b01
    2a80:	4843575f 	0x4843575f
    2a84:	545f5241 	0x545f5241
    2a88:	8c010020 	lw	at,32(zero)
    2a8c:	43575f02 	c0	0x1575f02
    2a90:	5f524148 	0x5f524148
    2a94:	00205f54 	0x205f54
    2a98:	5f028d01 	0x5f028d01
    2a9c:	5f445342 	0x5f445342
    2aa0:	41484357 	0x41484357
    2aa4:	5f545f52 	0x5f545f52
    2aa8:	8e010020 	lw	at,32(s0)
    2aac:	43575f02 	c0	0x1575f02
    2ab0:	5f524148 	0x5f524148
    2ab4:	45445f54 	0x45445f54
    2ab8:	454e4946 	0x454e4946
    2abc:	00205f44 	0x205f44
    2ac0:	5f028f01 	0x5f028f01
    2ac4:	41484357 	0x41484357
    2ac8:	5f545f52 	0x5f545f52
    2acc:	49464544 	0x49464544
    2ad0:	2044454e 	addi	a0,v0,17742
    2ad4:	02900100 	0x2900100
    2ad8:	4843575f 	0x4843575f
    2adc:	545f5241 	0x545f5241
    2ae0:	0020485f 	0x20485f
    2ae4:	5f029101 	0x5f029101
    2ae8:	6e695f5f 	0x6e695f5f
    2aec:	63775f74 	0x63775f74
    2af0:	5f726168 	0x5f726168
    2af4:	20685f74 	addi	t0,v1,24436
    2af8:	02920100 	0x2920100
    2afc:	4e495f5f 	c3	0x495f5f
    2b00:	43575f54 	c0	0x1575f54
    2b04:	5f524148 	0x5f524148
    2b08:	20485f54 	addi	t0,v0,24404
    2b0c:	02930100 	0x2930100
    2b10:	4343475f 	c0	0x143475f
    2b14:	4843575f 	0x4843575f
    2b18:	545f5241 	0x545f5241
    2b1c:	94010020 	lhu	at,32(zero)
    2b20:	43575f02 	c0	0x1575f02
    2b24:	5f524148 	0x5f524148
    2b28:	45445f54 	0x45445f54
    2b2c:	52414c43 	0x52414c43
    2b30:	00204445 	0x204445
    2b34:	5f02a102 	0x5f02a102
    2b38:	5f445342 	0x5f445342
    2b3c:	41484357 	0x41484357
    2b40:	5f545f52 	0x5f545f52
    2b44:	02d60200 	0x2d60200
    2b48:	656e5f5f 	0x656e5f5f
    2b4c:	775f6465 	jalx	d7d9194 <foobar+0xd7d8f48>
    2b50:	72616863 	0x72616863
    2b54:	0200745f 	0x200745f
    2b58:	554e038b 	0x554e038b
    2b5c:	01004c4c 	syscall	0x40131
    2b60:	554e0390 	0x554e0390
    2b64:	28204c4c 	slti	zero,at,19532
    2b68:	696f7628 	0x696f7628
    2b6c:	292a2064 	slti	t2,t1,8292
    2b70:	02002930 	0x2002930
    2b74:	5f5f0396 	0x5f5f0396
    2b78:	6465656e 	0x6465656e
    2b7c:	4c554e5f 	0x4c554e5f
    2b80:	0104004c 	syscall	0x41001
    2b84:	54535f26 	0x54535f26
    2b88:	42494c44 	c0	0x494c44
    2b8c:	3120485f 	andi	zero,t1,0x485f
    2b90:	5f6f0100 	0x5f6f0100
    2b94:	69646c5f 	0x69646c5f
    2b98:	5f745f76 	0x5f745f76
    2b9c:	69666564 	0x69666564
    2ba0:	2064656e 	addi	a0,v1,25966
    2ba4:	7b010031 	0x7b010031
    2ba8:	6c6c5f5f 	0x6c6c5f5f
    2bac:	5f766964 	0x5f766964
    2bb0:	65645f74 	0x65645f74
    2bb4:	656e6966 	0x656e6966
    2bb8:	00312064 	0x312064
    2bbc:	52018101 	0x52018101
    2bc0:	5f444e41 	0x5f444e41
    2bc4:	2058414d 	addi	t8,v0,16717
    2bc8:	37343132 	ori	s4,t9,0x3132
    2bcc:	36333834 	ori	s3,s1,0x3834
    2bd0:	01003734 	0x1003734
    2bd4:	58450186 	0x58450186
    2bd8:	465f5449 	c1	0x5f5449
    2bdc:	554c4941 	0x554c4941
    2be0:	31204552 	andi	zero,t1,0x4552
    2be4:	01870100 	0x1870100
    2be8:	54495845 	0x54495845
    2bec:	4355535f 	c0	0x155535f
    2bf0:	53534543 	0x53534543
    2bf4:	01003020 	add	a2,t0,zero
    2bf8:	424d018b 	c0	0x4d018b
    2bfc:	5255435f 	0x5255435f
    2c00:	58414d5f 	0x58414d5f
    2c04:	5f5f2820 	0x5f5f2820
    2c08:	70797463 	0x70797463
    2c0c:	65675f65 	0x65675f65
    2c10:	626d5f74 	0x626d5f74
    2c14:	7275635f 	0x7275635f
    2c18:	78616d5f 	0x78616d5f
    2c1c:	29292820 	slti	t1,t1,10272
    2c20:	02c00300 	0x2c00300
    2c24:	5f19010a 	0x5f19010a
    2c28:	5f535953 	0x5f535953
    2c2c:	45505954 	0x45505954
    2c30:	20485f53 	addi	t0,v0,24403
    2c34:	1f030031 	0x1f030031
    2c38:	5f19010b 	0x5f19010b
    2c3c:	53544942 	0x53544942
    2c40:	5059545f 	0x5059545f
    2c44:	485f5345 	0x485f5345
    2c48:	03003120 	0x3003120
    2c4c:	1301071c 	beq	t8,at,48c0 <.debug_macinfo+0x48c0>
    2c50:	4f575f5f 	c3	0x1575f5f
    2c54:	49534452 	0x49534452
    2c58:	5f20455a 	0x5f20455a
    2c5c:	5350494d 	0x5350494d
    2c60:	505a535f 	0x505a535f
    2c64:	04005254 	bltz	zero,175b8 <foobar+0x1736c>
    2c68:	5f5f6301 	0x5f5f6301
    2c6c:	5f363153 	0x5f363153
    2c70:	45505954 	0x45505954
    2c74:	6f687320 	0x6f687320
    2c78:	69207472 	0x69207472
    2c7c:	0100746e 	0x100746e
    2c80:	555f5f64 	0x555f5f64
    2c84:	545f3631 	0x545f3631
    2c88:	20455059 	addi	a1,v0,20569
    2c8c:	69736e75 	0x69736e75
    2c90:	64656e67 	0x64656e67
    2c94:	6f687320 	0x6f687320
    2c98:	69207472 	0x69207472
    2c9c:	0100746e 	0x100746e
    2ca0:	535f5f65 	0x535f5f65
    2ca4:	545f3233 	0x545f3233
    2ca8:	20455059 	addi	a1,v0,20569
    2cac:	00746e69 	0x746e69
    2cb0:	5f5f6601 	0x5f5f6601
    2cb4:	5f323355 	0x5f323355
    2cb8:	45505954 	0x45505954
    2cbc:	736e7520 	0x736e7520
    2cc0:	656e6769 	0x656e6769
    2cc4:	6e692064 	0x6e692064
    2cc8:	67010074 	0x67010074
    2ccc:	4c535f5f 	0x4c535f5f
    2cd0:	57474e4f 	0x57474e4f
    2cd4:	5f44524f 	0x5f44524f
    2cd8:	45505954 	0x45505954
    2cdc:	6e6f6c20 	0x6e6f6c20
    2ce0:	6e692067 	0x6e692067
    2ce4:	68010074 	0x68010074
    2ce8:	4c555f5f 	0x4c555f5f
    2cec:	57474e4f 	0x57474e4f
    2cf0:	5f44524f 	0x5f44524f
    2cf4:	45505954 	0x45505954
    2cf8:	736e7520 	0x736e7520
    2cfc:	656e6769 	0x656e6769
    2d00:	6f6c2064 	0x6f6c2064
    2d04:	6920676e 	0x6920676e
    2d08:	0100746e 	0x100746e
    2d0c:	535f5f6a 	0x535f5f6a
    2d10:	44415551 	0x44415551
    2d14:	5059545f 	0x5059545f
    2d18:	5f5f2045 	0x5f5f2045
    2d1c:	64617571 	0x64617571
    2d20:	0100745f 	0x100745f
    2d24:	555f5f6b 	0x555f5f6b
    2d28:	44415551 	0x44415551
    2d2c:	5059545f 	0x5059545f
    2d30:	5f5f2045 	0x5f5f2045
    2d34:	75715f75 	jalx	5c57dd4 <foobar+0x5c57b88>
    2d38:	745f6461 	jalx	17d9184 <foobar+0x17d8f38>
    2d3c:	5f6c0100 	0x5f6c0100
    2d40:	4f57535f 	c3	0x157535f
    2d44:	545f4452 	0x545f4452
    2d48:	20455059 	addi	a1,v0,20569
    2d4c:	00746e69 	0x746e69
    2d50:	5f5f6d01 	0x5f5f6d01
    2d54:	524f5755 	0x524f5755
    2d58:	59545f44 	0x59545f44
    2d5c:	75204550 	jalx	4811540 <foobar+0x48112f4>
    2d60:	6769736e 	0x6769736e
    2d64:	2064656e 	addi	a0,v1,25966
    2d68:	00746e69 	0x746e69
    2d6c:	5f5f6e01 	0x5f5f6e01
    2d70:	4e4f4c53 	c3	0x4f4c53
    2d74:	5f323347 	0x5f323347
    2d78:	45505954 	0x45505954
    2d7c:	6e6f6c20 	0x6e6f6c20
    2d80:	6e692067 	0x6e692067
    2d84:	6f010074 	0x6f010074
    2d88:	4c555f5f 	0x4c555f5f
    2d8c:	33474e4f 	andi	a3,k0,0x4e4f
    2d90:	59545f32 	0x59545f32
    2d94:	75204550 	jalx	4811540 <foobar+0x48112f4>
    2d98:	6769736e 	0x6769736e
    2d9c:	2064656e 	addi	a0,v1,25966
    2da0:	676e6f6c 	0x676e6f6c
    2da4:	746e6920 	jalx	1b9a480 <foobar+0x1b9a234>
    2da8:	5f700100 	0x5f700100
    2dac:	3436535f 	ori	s6,at,0x535f
    2db0:	5059545f 	0x5059545f
    2db4:	5f5f2045 	0x5f5f2045
    2db8:	64617571 	0x64617571
    2dbc:	0100745f 	0x100745f
    2dc0:	555f5f71 	0x555f5f71
    2dc4:	545f3436 	0x545f3436
    2dc8:	20455059 	addi	a1,v0,20569
    2dcc:	5f755f5f 	0x5f755f5f
    2dd0:	64617571 	0x64617571
    2dd4:	0100745f 	0x100745f
    2dd8:	535f5f74 	0x535f5f74
    2ddc:	545f4454 	0x545f4454
    2de0:	20455059 	addi	a1,v0,20569
    2de4:	78655f5f 	0x78655f5f
    2de8:	736e6574 	0x736e6574
    2dec:	5f6e6f69 	0x5f6e6f69
    2df0:	7974205f 	0x7974205f
    2df4:	65646570 	0x65646570
    2df8:	83030066 	lb	v1,102(t8)
    2dfc:	19010c01 	0x19010c01
    2e00:	5449425f 	0x5449425f
    2e04:	59545f53 	0x59545f53
    2e08:	49534550 	0x49534550
    2e0c:	5f53455a 	0x5f53455a
    2e10:	00312048 	0x312048
    2e14:	5f5f1e01 	0x5f5f1e01
    2e18:	5f564544 	0x5f564544
    2e1c:	59545f54 	0x59545f54
    2e20:	5f204550 	0x5f204550
    2e24:	5551555f 	0x5551555f
    2e28:	545f4441 	0x545f4441
    2e2c:	00455059 	0x455059
    2e30:	5f5f1f01 	0x5f5f1f01
    2e34:	5f444955 	0x5f444955
    2e38:	59545f54 	0x59545f54
    2e3c:	5f204550 	0x5f204550
    2e40:	3233555f 	andi	s3,s1,0x555f
    2e44:	5059545f 	0x5059545f
    2e48:	20010045 	addi	at,zero,69
    2e4c:	49475f5f 	0x49475f5f
    2e50:	5f545f44 	0x5f545f44
    2e54:	45505954 	0x45505954
    2e58:	555f5f20 	0x555f5f20
    2e5c:	545f3233 	0x545f3233
    2e60:	00455059 	0x455059
    2e64:	5f5f2101 	0x5f5f2101
    2e68:	5f4f4e49 	0x5f4f4e49
    2e6c:	59545f54 	0x59545f54
    2e70:	5f204550 	0x5f204550
    2e74:	4f4c555f 	c3	0x14c555f
    2e78:	4f57474e 	c3	0x157474e
    2e7c:	545f4452 	0x545f4452
    2e80:	00455059 	0x455059
    2e84:	5f5f2201 	0x5f5f2201
    2e88:	364f4e49 	ori	t7,s2,0x4e49
    2e8c:	5f545f34 	0x5f545f34
    2e90:	45505954 	0x45505954
    2e94:	555f5f20 	0x555f5f20
    2e98:	44415551 	0x44415551
    2e9c:	5059545f 	0x5059545f
    2ea0:	23010045 	addi	at,t8,69
    2ea4:	4f4d5f5f 	c3	0x14d5f5f
    2ea8:	545f4544 	0x545f4544
    2eac:	5059545f 	0x5059545f
    2eb0:	5f5f2045 	0x5f5f2045
    2eb4:	5f323355 	0x5f323355
    2eb8:	45505954 	0x45505954
    2ebc:	5f240100 	0x5f240100
    2ec0:	494c4e5f 	0x494c4e5f
    2ec4:	545f4b4e 	0x545f4b4e
    2ec8:	5059545f 	0x5059545f
    2ecc:	5f5f2045 	0x5f5f2045
    2ed0:	524f5755 	0x524f5755
    2ed4:	59545f44 	0x59545f44
    2ed8:	01004550 	0x1004550
    2edc:	4f5f5f25 	c3	0x15f5f25
    2ee0:	545f4646 	0x545f4646
    2ee4:	5059545f 	0x5059545f
    2ee8:	5f5f2045 	0x5f5f2045
    2eec:	4e4f4c53 	c3	0x4f4c53
    2ef0:	524f5747 	0x524f5747
    2ef4:	59545f44 	0x59545f44
    2ef8:	01004550 	0x1004550
    2efc:	4f5f5f26 	c3	0x15f5f26
    2f00:	34364646 	ori	s6,at,0x4646
    2f04:	545f545f 	0x545f545f
    2f08:	20455059 	addi	a1,v0,20569
    2f0c:	51535f5f 	0x51535f5f
    2f10:	5f444155 	0x5f444155
    2f14:	45505954 	0x45505954
    2f18:	5f270100 	0x5f270100
    2f1c:	4449505f 	0x4449505f
    2f20:	545f545f 	0x545f545f
    2f24:	20455059 	addi	a1,v0,20569
    2f28:	33535f5f 	andi	s3,k0,0x5f5f
    2f2c:	59545f32 	0x59545f32
    2f30:	01004550 	0x1004550
    2f34:	525f5f28 	0x525f5f28
    2f38:	5f4d494c 	0x5f4d494c
    2f3c:	59545f54 	0x59545f54
    2f40:	5f204550 	0x5f204550
    2f44:	4f4c555f 	c3	0x14c555f
    2f48:	4f57474e 	c3	0x157474e
    2f4c:	545f4452 	0x545f4452
    2f50:	00455059 	0x455059
    2f54:	5f5f2901 	0x5f5f2901
    2f58:	4d494c52 	0x4d494c52
    2f5c:	545f3436 	0x545f3436
    2f60:	5059545f 	0x5059545f
    2f64:	5f5f2045 	0x5f5f2045
    2f68:	41555155 	0x41555155
    2f6c:	59545f44 	0x59545f44
    2f70:	01004550 	0x1004550
    2f74:	425f5f2a 	c0	0x5f5f2a
    2f78:	4e434b4c 	c3	0x434b4c
    2f7c:	5f545f54 	0x5f545f54
    2f80:	45505954 	0x45505954
    2f84:	535f5f20 	0x535f5f20
    2f88:	474e4f4c 	c1	0x14e4f4c
    2f8c:	44524f57 	0x44524f57
    2f90:	5059545f 	0x5059545f
    2f94:	2b010045 	slti	at,t8,69
    2f98:	4c425f5f 	0x4c425f5f
    2f9c:	544e434b 	0x544e434b
    2fa0:	545f3436 	0x545f3436
    2fa4:	5059545f 	0x5059545f
    2fa8:	5f5f2045 	0x5f5f2045
    2fac:	41555153 	0x41555153
    2fb0:	59545f44 	0x59545f44
    2fb4:	01004550 	0x1004550
    2fb8:	465f5f2c 	c1	0x5f5f2c
    2fbc:	4b4c4253 	c2	0x14c4253
    2fc0:	5f544e43 	0x5f544e43
    2fc4:	59545f54 	0x59545f54
    2fc8:	5f204550 	0x5f204550
    2fcc:	4f4c555f 	c3	0x14c555f
    2fd0:	4f57474e 	c3	0x157474e
    2fd4:	545f4452 	0x545f4452
    2fd8:	00455059 	0x455059
    2fdc:	5f5f2d01 	0x5f5f2d01
    2fe0:	4c425346 	0x4c425346
    2fe4:	544e434b 	0x544e434b
    2fe8:	545f3436 	0x545f3436
    2fec:	5059545f 	0x5059545f
    2ff0:	5f5f2045 	0x5f5f2045
    2ff4:	41555155 	0x41555155
    2ff8:	59545f44 	0x59545f44
    2ffc:	01004550 	0x1004550
    3000:	465f5f2e 	c1	0x5f5f2e
    3004:	4c494653 	0x4c494653
    3008:	5f544e43 	0x5f544e43
    300c:	59545f54 	0x59545f54
    3010:	5f204550 	0x5f204550
    3014:	4f4c555f 	c3	0x14c555f
    3018:	4f57474e 	c3	0x157474e
    301c:	545f4452 	0x545f4452
    3020:	00455059 	0x455059
    3024:	5f5f2f01 	0x5f5f2f01
    3028:	49465346 	0x49465346
    302c:	544e434c 	0x544e434c
    3030:	545f3436 	0x545f3436
    3034:	5059545f 	0x5059545f
    3038:	5f5f2045 	0x5f5f2045
    303c:	41555155 	0x41555155
    3040:	59545f44 	0x59545f44
    3044:	01004550 	0x1004550
    3048:	495f5f30 	0x495f5f30
    304c:	5f545f44 	0x5f545f44
    3050:	45505954 	0x45505954
    3054:	555f5f20 	0x555f5f20
    3058:	545f3233 	0x545f3233
    305c:	00455059 	0x455059
    3060:	5f5f3101 	0x5f5f3101
    3064:	434f4c43 	c0	0x14f4c43
    3068:	5f545f4b 	0x5f545f4b
    306c:	45505954 	0x45505954
    3070:	535f5f20 	0x535f5f20
    3074:	474e4f4c 	c1	0x14e4f4c
    3078:	44524f57 	0x44524f57
    307c:	5059545f 	0x5059545f
    3080:	32010045 	andi	at,s0,0x45
    3084:	49545f5f 	0x49545f5f
    3088:	545f454d 	0x545f454d
    308c:	5059545f 	0x5059545f
    3090:	5f5f2045 	0x5f5f2045
    3094:	4e4f4c53 	c3	0x4f4c53
    3098:	524f5747 	0x524f5747
    309c:	59545f44 	0x59545f44
    30a0:	01004550 	0x1004550
    30a4:	555f5f33 	0x555f5f33
    30a8:	4f434553 	c3	0x1434553
    30ac:	5f53444e 	0x5f53444e
    30b0:	59545f54 	0x59545f54
    30b4:	5f204550 	0x5f204550
    30b8:	3233555f 	andi	s3,s1,0x555f
    30bc:	5059545f 	0x5059545f
    30c0:	34010045 	li	at,0x45
    30c4:	55535f5f 	0x55535f5f
    30c8:	4f434553 	c3	0x1434553
    30cc:	5f53444e 	0x5f53444e
    30d0:	59545f54 	0x59545f54
    30d4:	5f204550 	0x5f204550
    30d8:	4f4c535f 	c3	0x14c535f
    30dc:	4f57474e 	c3	0x157474e
    30e0:	545f4452 	0x545f4452
    30e4:	00455059 	0x455059
    30e8:	5f5f3501 	0x5f5f3501
    30ec:	44444144 	0x44444144
    30f0:	5f545f52 	0x5f545f52
    30f4:	45505954 	0x45505954
    30f8:	535f5f20 	0x535f5f20
    30fc:	545f3233 	0x545f3233
    3100:	00455059 	0x455059
    3104:	5f5f3601 	0x5f5f3601
    3108:	4c425753 	0x4c425753
    310c:	5f545f4b 	0x5f545f4b
    3110:	45505954 	0x45505954
    3114:	535f5f20 	0x535f5f20
    3118:	474e4f4c 	c1	0x14e4f4c
    311c:	44524f57 	0x44524f57
    3120:	5059545f 	0x5059545f
    3124:	37010045 	ori	at,t8,0x45
    3128:	454b5f5f 	0x454b5f5f
    312c:	5f545f59 	0x5f545f59
    3130:	45505954 	0x45505954
    3134:	535f5f20 	0x535f5f20
    3138:	545f3233 	0x545f3233
    313c:	00455059 	0x455059
    3140:	5f5f3801 	0x5f5f3801
    3144:	434f4c43 	c0	0x14f4c43
    3148:	5f44494b 	0x5f44494b
    314c:	59545f54 	0x59545f54
    3150:	5f204550 	0x5f204550
    3154:	3233535f 	andi	s3,s1,0x535f
    3158:	5059545f 	0x5059545f
    315c:	39010045 	xori	at,t0,0x45
    3160:	49545f5f 	0x49545f5f
    3164:	5f52454d 	0x5f52454d
    3168:	59545f54 	0x59545f54
    316c:	76204550 	jalx	8811540 <foobar+0x88112f4>
    3170:	2064696f 	addi	a0,v1,26991
    3174:	3a01002a 	xori	at,s0,0x2a
    3178:	4c425f5f 	0x4c425f5f
    317c:	5a49534b 	0x5a49534b
    3180:	5f545f45 	0x5f545f45
    3184:	45505954 	0x45505954
    3188:	535f5f20 	0x535f5f20
    318c:	474e4f4c 	c1	0x14e4f4c
    3190:	44524f57 	0x44524f57
    3194:	5059545f 	0x5059545f
    3198:	3b010045 	xori	at,t8,0x45
    319c:	53465f5f 	0x53465f5f
    31a0:	545f4449 	0x545f4449
    31a4:	5059545f 	0x5059545f
    31a8:	74732045 	jalx	1cc8114 <foobar+0x1cc7ec8>
    31ac:	74637572 	jalx	18dd5c8 <foobar+0x18dd37c>
    31b0:	69207b20 	0x69207b20
    31b4:	5f20746e 	0x5f20746e
    31b8:	6c61765f 	0x6c61765f
    31bc:	3b5d325b 	xori	sp,k0,0x325b
    31c0:	01007d20 	0x1007d20
    31c4:	535f5f3c 	0x535f5f3c
    31c8:	455a4953 	0x455a4953
    31cc:	545f545f 	0x545f545f
    31d0:	20455059 	addi	a1,v0,20569
    31d4:	57535f5f 	0x57535f5f
    31d8:	5f44524f 	0x5f44524f
    31dc:	45505954 	0x45505954
    31e0:	5f3f0100 	0x5f3f0100
    31e4:	5f44465f 	0x5f44465f
    31e8:	53544553 	0x53544553
    31ec:	20455a49 	addi	a1,v0,23113
    31f0:	34323031 	ori	s2,at,0x3031
    31f4:	c3020400 	lwc0	$2,1024(t8)
    31f8:	535f5f01 	0x535f5f01
    31fc:	545f4454 	0x545f4454
    3200:	00455059 	0x455059
    3204:	5f2a0104 	0x5f2a0104
    3208:	635f755f 	0x635f755f
    320c:	5f726168 	0x5f726168
    3210:	69666564 	0x69666564
    3214:	2064656e 	addi	a0,v1,25966
    3218:	5f360100 	0x5f360100
    321c:	6f6e695f 	0x6f6e695f
    3220:	645f745f 	0x645f745f
    3224:	6e696665 	0x6e696665
    3228:	00206465 	0x206465
    322c:	5f5f3f01 	0x5f5f3f01
    3230:	5f766564 	0x5f766564
    3234:	65645f74 	0x65645f74
    3238:	656e6966 	0x656e6966
    323c:	01002064 	0x1002064
    3240:	675f5f44 	0x675f5f44
    3244:	745f6469 	jalx	17d91a4 <foobar+0x17d8f58>
    3248:	6665645f 	0x6665645f
    324c:	64656e69 	0x64656e69
    3250:	49010020 	bc2t	32d4 <.debug_macinfo+0x32d4>
    3254:	6f6d5f5f 	0x6f6d5f5f
    3258:	745f6564 	jalx	17d9590 <foobar+0x17d9344>
    325c:	6665645f 	0x6665645f
    3260:	64656e69 	0x64656e69
    3264:	4e010020 	c3	0x10020
    3268:	6c6e5f5f 	0x6c6e5f5f
    326c:	5f6b6e69 	0x5f6b6e69
    3270:	65645f74 	0x65645f74
    3274:	656e6966 	0x656e6966
    3278:	01002064 	0x1002064
    327c:	755f5f53 	jalx	57d7d4c <foobar+0x57d7b00>
    3280:	745f6469 	jalx	17d91a4 <foobar+0x17d8f58>
    3284:	6665645f 	0x6665645f
    3288:	64656e69 	0x64656e69
    328c:	5c010020 	0x5c010020
    3290:	666f5f5f 	0x666f5f5f
    3294:	5f745f66 	0x5f745f66
    3298:	69666564 	0x69666564
    329c:	2064656e 	addi	a0,v1,25966
    32a0:	5f650100 	0x5f650100
    32a4:	6469705f 	0x6469705f
    32a8:	645f745f 	0x645f745f
    32ac:	6e696665 	0x6e696665
    32b0:	00206465 	0x206465
    32b4:	5f5f6a01 	0x5f5f6a01
    32b8:	745f6469 	jalx	17d91a4 <foobar+0x17d8f58>
    32bc:	6665645f 	0x6665645f
    32c0:	64656e69 	0x64656e69
    32c4:	6f010020 	0x6f010020
    32c8:	73735f5f 	0x73735f5f
    32cc:	5f657a69 	0x5f657a69
    32d0:	65645f74 	0x65645f74
    32d4:	656e6966 	0x656e6966
    32d8:	01002064 	0x1002064
    32dc:	645f5f76 	0x645f5f76
    32e0:	72646461 	0x72646461
    32e4:	645f745f 	0x645f745f
    32e8:	6e696665 	0x6e696665
    32ec:	00206465 	0x206465
    32f0:	5f5f7c01 	0x5f5f7c01
    32f4:	5f79656b 	0x5f79656b
    32f8:	65645f74 	0x65645f74
    32fc:	656e6966 	0x656e6966
    3300:	01002064 	0x1002064
    3304:	5f5f0182 	0x5f5f0182
    3308:	6465656e 	0x6465656e
    330c:	6d69745f 	0x6d69745f
    3310:	20745f65 	addi	s4,v1,24421
    3314:	01830100 	0x1830100
    3318:	656e5f5f 	0x656e5f5f
    331c:	745f6465 	jalx	17d9194 <foobar+0x17d8f48>
    3320:	72656d69 	0x72656d69
    3324:	0020745f 	0x20745f
    3328:	5f018401 	0x5f018401
    332c:	65656e5f 	0x65656e5f
    3330:	6c635f64 	0x6c635f64
    3334:	696b636f 	0x696b636f
    3338:	20745f64 	addi	s4,v1,24420
    333c:	01850300 	0x1850300
    3340:	5f43020d 	0x5f43020d
    3344:	65656e5f 	0x65656e5f
    3348:	6c635f64 	0x6c635f64
    334c:	5f6b636f 	0x5f6b636f
    3350:	46010074 	c1	0x10074
    3354:	69745f5f 	0x69745f5f
    3358:	745f656d 	jalx	17d95b4 <foobar+0x17d9368>
    335c:	6665645f 	0x6665645f
    3360:	64656e69 	0x64656e69
    3364:	02003120 	0x2003120
    3368:	6e5f5f53 	0x6e5f5f53
    336c:	5f646565 	0x5f646565
    3370:	656d6974 	0x656d6974
    3374:	0100745f 	0x100745f
    3378:	635f5f57 	0x635f5f57
    337c:	6b636f6c 	0x6b636f6c
    3380:	745f6469 	jalx	17d91a4 <foobar+0x17d8f58>
    3384:	6665645f 	0x6665645f
    3388:	64656e69 	0x64656e69
    338c:	02003120 	0x2003120
    3390:	635f5f5f 	0x635f5f5f
    3394:	6b636f6c 	0x6b636f6c
    3398:	745f6469 	jalx	17d91a4 <foobar+0x17d8f58>
    339c:	5f656d69 	0x5f656d69
    33a0:	63010074 	0x63010074
    33a4:	69745f5f 	0x69745f5f
    33a8:	5f72656d 	0x5f72656d
    33ac:	65645f74 	0x65645f74
    33b0:	656e6966 	0x656e6966
    33b4:	00312064 	0x312064
    33b8:	5f5f6b02 	0x5f5f6b02
    33bc:	6465656e 	0x6465656e
    33c0:	6d69745f 	0x6d69745f
    33c4:	745f7265 	jalx	17dc994 <foobar+0x17dc748>
    33c8:	5f7f0200 	0x5f7f0200
    33cc:	65656e5f 	0x65656e5f
    33d0:	69745f64 	0x69745f64
    33d4:	7073656d 	0x7073656d
    33d8:	04006365 	bltz	zero,1c170 <foobar+0x1bf24>
    33dc:	5f019201 	0x5f019201
    33e0:	65656e5f 	0x65656e5f
    33e4:	69735f64 	0x69735f64
    33e8:	745f657a 	jalx	17d95e8 <foobar+0x17d939c>
    33ec:	93030020 	lbu	v1,32(t8)
    33f0:	e9020901 	swc2	$2,2305(t0)
    33f4:	6e5f5f01 	0x6e5f5f01
    33f8:	5f646565 	0x5f646565
    33fc:	657a6973 	0x657a6973
    3400:	0200745f 	0x200745f
    3404:	5f5f0396 	0x5f5f0396
    3408:	6465656e 	0x6465656e
    340c:	4c554e5f 	0x4c554e5f
    3410:	0104004c 	syscall	0x41001
    3414:	5f5f01bc 	0x5f5f01bc
    3418:	4e746e69 	c3	0x746e69
    341c:	4e28745f 	c3	0x28745f
    3420:	444f4d2c 	0x444f4d2c
    3424:	74202945 	jalx	80a514 <foobar+0x80a2c8>
    3428:	64657079 	0x64657079
    342c:	69206665 	0x69206665
    3430:	6920746e 	0x6920746e
    3434:	2320746e 	addi	zero,t9,29806
    3438:	23204e23 	addi	zero,t9,20003
    343c:	20745f23 	addi	s4,v1,24355
    3440:	74615f5f 	jalx	1857d7c <foobar+0x1857b30>
    3444:	62697274 	0x62697274
    3448:	5f657475 	0x5f657475
    344c:	2828205f 	slti	t0,at,8287
    3450:	6f6d5f5f 	0x6f6d5f5f
    3454:	5f5f6564 	0x5f5f6564
    3458:	4f4d2820 	c3	0x14d2820
    345c:	29294544 	slti	t1,t1,17732
    3460:	be010029 	0xbe010029
    3464:	755f5f01 	jalx	57d7c04 <foobar+0x57d79b8>
    3468:	746e695f 	jalx	1b9a57c <foobar+0x1b9a330>
    346c:	28745f4e 	slti	s4,v1,24398
    3470:	4f4d2c4e 	c3	0x14d2c4e
    3474:	20294544 	addi	t1,at,17732
    3478:	65707974 	0x65707974
    347c:	20666564 	addi	a2,v1,25956
    3480:	69736e75 	0x69736e75
    3484:	64656e67 	0x64656e67
    3488:	746e6920 	jalx	1b9a480 <foobar+0x1b9a234>
    348c:	695f7520 	0x695f7520
    3490:	2320746e 	addi	zero,t9,29806
    3494:	23204e23 	addi	zero,t9,20003
    3498:	20745f23 	addi	s4,v1,24355
    349c:	74615f5f 	jalx	1857d7c <foobar+0x1857b30>
    34a0:	62697274 	0x62697274
    34a4:	5f657475 	0x5f657475
    34a8:	2828205f 	slti	t0,at,8287
    34ac:	6f6d5f5f 	0x6f6d5f5f
    34b0:	5f5f6564 	0x5f5f6564
    34b4:	4f4d2820 	c3	0x14d2820
    34b8:	29294544 	slti	t1,t1,17732
    34bc:	c2010029 	lwc0	$1,41(s0)
    34c0:	695f5f01 	0x695f5f01
    34c4:	5f38746e 	0x5f38746e
    34c8:	65645f74 	0x65645f74
    34cc:	656e6966 	0x656e6966
    34d0:	01002064 	0x1002064
    34d4:	5f5f01d4 	0x5f5f01d4
    34d8:	5f544942 	0x5f544942
    34dc:	45505954 	0x45505954
    34e0:	45445f53 	0x45445f53
    34e4:	454e4946 	0x454e4946
    34e8:	205f5f44 	addi	ra,v0,24388
    34ec:	d9030031 	0xd9030031
    34f0:	14010e01 	bne	zero,at,6cf8 <.debug_macinfo+0x6cf8>
    34f4:	444e455f 	0x444e455f
    34f8:	5f4e4149 	0x5f4e4149
    34fc:	00312048 	0x312048
    3500:	5f5f2001 	0x5f5f2001
    3504:	5454494c 	0x5454494c
    3508:	455f454c 	0x455f454c
    350c:	4149444e 	0x4149444e
    3510:	3231204e 	andi	s1,s1,0x204e
    3514:	01003433 	0x1003433
    3518:	425f5f21 	c0	0x5f5f21
    351c:	455f4749 	0x455f4749
    3520:	4149444e 	0x4149444e
    3524:	3334204e 	andi	s4,t9,0x204e
    3528:	01003132 	0x1003132
    352c:	505f5f22 	0x505f5f22
    3530:	455f5044 	0x455f5044
    3534:	4149444e 	0x4149444e
    3538:	3433204e 	ori	s3,at,0x204e
    353c:	03003231 	0x3003231
    3540:	0e010f25 	jal	8043c94 <foobar+0x8043a48>
    3544:	59425f5f 	0x59425f5f
    3548:	4f5f4554 	c3	0x15f4554
    354c:	52454452 	0x52454452
    3550:	4c5f5f20 	0x4c5f5f20
    3554:	4c545449 	0x4c545449
    3558:	4e455f45 	c3	0x455f45
    355c:	4e414944 	c3	0x414944
    3560:	2a010400 	slti	at,s0,1024
    3564:	4c465f5f 	0x4c465f5f
    3568:	5f54414f 	0x5f54414f
    356c:	44524f57 	0x44524f57
    3570:	44524f5f 	0x44524f5f
    3574:	5f205245 	0x5f205245
    3578:	5459425f 	0x5459425f
    357c:	524f5f45 	0x524f5f45
    3580:	00524544 	0x524544
    3584:	494c2e01 	0x494c2e01
    3588:	454c5454 	0x454c5454
    358c:	444e455f 	0x444e455f
    3590:	204e4149 	addi	t6,v0,16713
    3594:	494c5f5f 	0x494c5f5f
    3598:	454c5454 	0x454c5454
    359c:	444e455f 	0x444e455f
    35a0:	004e4149 	0x4e4149
    35a4:	49422f01 	0x49422f01
    35a8:	4e455f47 	c3	0x455f47
    35ac:	4e414944 	c3	0x414944
    35b0:	425f5f20 	c0	0x5f5f20
    35b4:	455f4749 	0x455f4749
    35b8:	4149444e 	0x4149444e
    35bc:	3001004e 	andi	at,zero,0x4e
    35c0:	5f504450 	0x5f504450
    35c4:	49444e45 	0x49444e45
    35c8:	5f204e41 	0x5f204e41
    35cc:	5044505f 	0x5044505f
    35d0:	444e455f 	0x444e455f
    35d4:	004e4149 	0x4e4149
    35d8:	59423101 	0x59423101
    35dc:	4f5f4554 	c3	0x15f4554
    35e0:	52454452 	0x52454452
    35e4:	425f5f20 	c0	0x5f5f20
    35e8:	5f455459 	0x5f455459
    35ec:	4544524f 	0x4544524f
    35f0:	35010052 	ori	at,t0,0x52
    35f4:	4f4c5f5f 	c3	0x14c5f5f
    35f8:	4c5f474e 	0x4c5f474e
    35fc:	5f474e4f 	0x5f474e4f
    3600:	52494150 	0x52494150
    3604:	2c494828 	sltiu	t1,v0,18472
    3608:	20294f4c 	addi	t1,at,20300
    360c:	202c4f4c 	addi	t4,at,20300
    3610:	03004948 	0x3004948
    3614:	1901103d 	0x1901103d
    3618:	5449425f 	0x5449425f
    361c:	59425f53 	0x59425f53
    3620:	57534554 	0x57534554
    3624:	485f5041 	0x485f5041
    3628:	01003120 	0x1003120
    362c:	625f5f1c 	0x625f5f1c
    3630:	70617773 	0x70617773
    3634:	6e6f635f 	0x6e6f635f
    3638:	6e617473 	0x6e617473
    363c:	36315f74 	ori	s1,s1,0x5f74
    3640:	20297828 	addi	t1,at,30760
    3644:	28282828 	slti	t0,at,10280
    3648:	3e202978 	0x3e202978
    364c:	2938203e 	slti	t8,t1,8254
    3650:	30202620 	andi	zero,at,0x2620
    3654:	75666678 	jalx	59999e0 <foobar+0x5999794>
    3658:	207c2029 	addi	gp,v1,8233
    365c:	78282828 	0x78282828
    3660:	20262029 	addi	a2,at,8233
    3664:	66667830 	0x66667830
    3668:	3c202975 	0x3c202975
    366c:	2938203c 	slti	t8,t1,8252
    3670:	20010029 	addi	at,zero,41
    3674:	73625f5f 	0x73625f5f
    3678:	5f706177 	0x5f706177
    367c:	78283631 	0x78283631
    3680:	5f282029 	0x5f282029
    3684:	7478655f 	jalx	1e1957c <foobar+0x1e19330>
    3688:	69736e65 	0x69736e65
    368c:	5f5f6e6f 	0x5f5f6e6f
    3690:	207b2820 	addi	k1,v1,10272
    3694:	69736e75 	0x69736e75
    3698:	64656e67 	0x64656e67
    369c:	6f687320 	0x6f687320
    36a0:	69207472 	0x69207472
    36a4:	5f20746e 	0x5f20746e
    36a8:	7873625f 	0x7873625f
    36ac:	28203d20 	slti	zero,at,15648
    36b0:	203b2978 	addi	k1,at,10616
    36b4:	73625f5f 	0x73625f5f
    36b8:	5f706177 	0x5f706177
    36bc:	736e6f63 	0x736e6f63
    36c0:	746e6174 	jalx	1b985d0 <foobar+0x1b98384>
    36c4:	2036315f 	addi	s6,at,12639
    36c8:	625f5f28 	0x625f5f28
    36cc:	3b297873 	xori	t1,t9,0x7873
    36d0:	29297d20 	slti	t1,t1,32032
    36d4:	5f2c0100 	0x5f2c0100
    36d8:	7773625f 	jalx	dcd897c <foobar+0xdcd8730>
    36dc:	635f7061 	0x635f7061
    36e0:	74736e6f 	jalx	1cdb9bc <foobar+0x1cdb770>
    36e4:	5f746e61 	0x5f746e61
    36e8:	78283233 	0x78283233
    36ec:	28282029 	slti	t0,at,8233
    36f0:	29782828 	slti	t8,t3,10280
    36f4:	30202620 	andi	zero,at,0x2620
    36f8:	30666678 	andi	a2,v1,0x6678
    36fc:	30303030 	andi	s0,at,0x3030
    3700:	20297530 	addi	t1,at,30000
    3704:	32203e3e 	andi	zero,s1,0x3e3e
    3708:	7c202934 	0x7c202934
    370c:	28282820 	slti	t0,at,10272
    3710:	26202978 	addiu	zero,s1,10616
    3714:	30783020 	andi	t8,v1,0x3020
    3718:	30666630 	andi	a2,v1,0x6630
    371c:	75303030 	jalx	4c0c0c0 <foobar+0x4c0be74>
    3720:	3e3e2029 	0x3e3e2029
    3724:	20293820 	addi	t1,at,14368
    3728:	2828207c 	slti	t0,at,8316
    372c:	20297828 	addi	t1,at,30760
    3730:	78302026 	0x78302026
    3734:	30303030 	andi	s0,at,0x3030
    3738:	30306666 	andi	s0,at,0x6666
    373c:	3c202975 	0x3c202975
    3740:	2938203c 	slti	t8,t1,8252
    3744:	28207c20 	slti	zero,at,31776
    3748:	29782828 	slti	t8,t3,10280
    374c:	30202620 	andi	zero,at,0x2620
    3750:	30303078 	andi	s0,at,0x3078
    3754:	66303030 	0x66303030
    3758:	20297566 	addi	t1,at,30054
    375c:	32203c3c 	andi	zero,s1,0x3c3c
    3760:	00292934 	0x292934
    3764:	5f5f3101 	0x5f5f3101
    3768:	61777362 	0x61777362
    376c:	32335f70 	andi	s3,s1,0x5f70
    3770:	20297828 	addi	t1,at,30760
    3774:	655f5f28 	0x655f5f28
    3778:	6e657478 	0x6e657478
    377c:	6e6f6973 	0x6e6f6973
    3780:	28205f5f 	slti	zero,at,24415
    3784:	6572207b 	0x6572207b
    3788:	74736967 	jalx	1cda59c <foobar+0x1cda350>
    378c:	75207265 	jalx	481c994 <foobar+0x481c748>
    3790:	6769736e 	0x6769736e
    3794:	2064656e 	addi	a0,v1,25966
    3798:	20746e69 	addi	s4,v1,28265
    379c:	73625f5f 	0x73625f5f
    37a0:	203d2078 	addi	sp,at,8312
    37a4:	3b297828 	xori	t1,t9,0x7828
    37a8:	625f5f20 	0x625f5f20
    37ac:	70617773 	0x70617773
    37b0:	6e6f635f 	0x6e6f635f
    37b4:	6e617473 	0x6e617473
    37b8:	32335f74 	andi	s3,s1,0x5f74
    37bc:	5f5f2820 	0x5f5f2820
    37c0:	29787362 	slti	t8,t3,29538
    37c4:	297d203b 	slti	sp,t3,8251
    37c8:	3e010029 	0x3e010029
    37cc:	73625f5f 	0x73625f5f
    37d0:	5f706177 	0x5f706177
    37d4:	736e6f63 	0x736e6f63
    37d8:	746e6174 	jalx	1b985d0 <foobar+0x1b98384>
    37dc:	2834365f 	slti	s4,at,13919
    37e0:	28202978 	slti	zero,at,10616
    37e4:	78282828 	0x78282828
    37e8:	20262029 	addi	a2,at,8233
    37ec:	66667830 	0x66667830
    37f0:	30303030 	andi	s0,at,0x3030
    37f4:	30303030 	andi	s0,at,0x3030
    37f8:	30303030 	andi	s0,at,0x3030
    37fc:	6c753030 	0x6c753030
    3800:	3e20296c 	0x3e20296c
    3804:	3635203e 	ori	s5,s1,0x203e
    3808:	207c2029 	addi	gp,v1,8233
    380c:	78282828 	0x78282828
    3810:	20262029 	addi	a2,at,8233
    3814:	30307830 	andi	s0,at,0x7830
    3818:	30306666 	andi	s0,at,0x6666
    381c:	30303030 	andi	s0,at,0x3030
    3820:	30303030 	andi	s0,at,0x3030
    3824:	6c753030 	0x6c753030
    3828:	3e20296c 	0x3e20296c
    382c:	3034203e 	andi	s4,at,0x203e
    3830:	207c2029 	addi	gp,v1,8233
    3834:	78282828 	0x78282828
    3838:	20262029 	addi	a2,at,8233
    383c:	30307830 	andi	s0,at,0x7830
    3840:	66663030 	0x66663030
    3844:	30303030 	andi	s0,at,0x3030
    3848:	30303030 	andi	s0,at,0x3030
    384c:	6c753030 	0x6c753030
    3850:	3e20296c 	0x3e20296c
    3854:	3432203e 	ori	s2,at,0x203e
    3858:	207c2029 	addi	gp,v1,8233
    385c:	78282828 	0x78282828
    3860:	20262029 	addi	a2,at,8233
    3864:	30307830 	andi	s0,at,0x7830
    3868:	30303030 	andi	s0,at,0x3030
    386c:	30306666 	andi	s0,at,0x6666
    3870:	30303030 	andi	s0,at,0x3030
    3874:	6c753030 	0x6c753030
    3878:	3e20296c 	0x3e20296c
    387c:	2938203e 	slti	t8,t1,8254
    3880:	28207c20 	slti	zero,at,31776
    3884:	29782828 	slti	t8,t3,10280
    3888:	30202620 	andi	zero,at,0x2620
    388c:	30303078 	andi	s0,at,0x3078
    3890:	30303030 	andi	s0,at,0x3030
    3894:	30666630 	andi	a2,v1,0x6630
    3898:	30303030 	andi	s0,at,0x3030
    389c:	6c6c7530 	0x6c6c7530
    38a0:	3c3c2029 	0x3c3c2029
    38a4:	20293820 	addi	t1,at,14368
    38a8:	2828207c 	slti	t0,at,8316
    38ac:	20297828 	addi	t1,at,30760
    38b0:	78302026 	0x78302026
    38b4:	30303030 	andi	s0,at,0x3030
    38b8:	30303030 	andi	s0,at,0x3030
    38bc:	66663030 	0x66663030
    38c0:	30303030 	andi	s0,at,0x3030
    38c4:	296c6c75 	slti	t4,t3,27765
    38c8:	203c3c20 	addi	gp,at,15392
    38cc:	20293432 	addi	t1,at,13362
    38d0:	2828207c 	slti	t0,at,8316
    38d4:	20297828 	addi	t1,at,30760
    38d8:	78302026 	0x78302026
    38dc:	30303030 	andi	s0,at,0x3030
    38e0:	30303030 	andi	s0,at,0x3030
    38e4:	30303030 	andi	s0,at,0x3030
    38e8:	30306666 	andi	s0,at,0x6666
    38ec:	296c6c75 	slti	t4,t3,27765
    38f0:	203c3c20 	addi	gp,at,15392
    38f4:	20293034 	addi	t1,at,12340
    38f8:	2828207c 	slti	t0,at,8316
    38fc:	20297828 	addi	t1,at,30760
    3900:	78302026 	0x78302026
    3904:	30303030 	andi	s0,at,0x3030
    3908:	30303030 	andi	s0,at,0x3030
    390c:	30303030 	andi	s0,at,0x3030
    3910:	66663030 	0x66663030
    3914:	296c6c75 	slti	t4,t3,27765
    3918:	203c3c20 	addi	gp,at,15392
    391c:	29293635 	slti	t1,t1,13877
    3920:	5f480100 	0x5f480100
    3924:	7773625f 	jalx	dcd897c <foobar+0xdcd8730>
    3928:	365f7061 	ori	ra,s2,0x7061
    392c:	29782834 	slti	t8,t3,10292
    3930:	5f5f2820 	0x5f5f2820
    3934:	65747865 	0x65747865
    3938:	6f69736e 	0x6f69736e
    393c:	205f5f6e 	addi	ra,v0,24430
    3940:	75207b28 	jalx	481eca0 <foobar+0x481ea54>
    3944:	6e6f696e 	0x6e6f696e
    3948:	5f207b20 	0x5f207b20
    394c:	7478655f 	jalx	1e1957c <foobar+0x1e19330>
    3950:	69736e65 	0x69736e65
    3954:	5f5f6e6f 	0x5f5f6e6f
    3958:	736e7520 	0x736e7520
    395c:	656e6769 	0x656e6769
    3960:	6f6c2064 	0x6f6c2064
    3964:	6c20676e 	0x6c20676e
    3968:	20676e6f 	addi	a3,v1,28271
    396c:	20746e69 	addi	s4,v1,28265
    3970:	6c6c5f5f 	0x6c6c5f5f
    3974:	6e75203b 	0x6e75203b
    3978:	6e676973 	0x6e676973
    397c:	69206465 	0x69206465
    3980:	5f20746e 	0x5f20746e
    3984:	325b6c5f 	andi	k1,s2,0x6c5f
    3988:	7d203b5d 	0x7d203b5d
    398c:	775f5f20 	jalx	d7d7c80 <foobar+0xd7d7a34>
    3990:	5f5f202c 	0x5f5f202c
    3994:	69203b72 	0x69203b72
    3998:	5f282066 	0x5f282066
    399c:	6975625f 	0x6975625f
    39a0:	6e69746c 	0x6e69746c
    39a4:	6e6f635f 	0x6e6f635f
    39a8:	6e617473 	0x6e617473
    39ac:	20705f74 	addi	s0,v1,24436
    39b0:	29297828 	slti	t1,t1,30760
    39b4:	725f5f20 	0x725f5f20
    39b8:	6c5f5f2e 	0x6c5f5f2e
    39bc:	203d206c 	addi	sp,at,8300
    39c0:	73625f5f 	0x73625f5f
    39c4:	5f706177 	0x5f706177
    39c8:	736e6f63 	0x736e6f63
    39cc:	746e6174 	jalx	1b985d0 <foobar+0x1b98384>
    39d0:	2034365f 	addi	s4,at,13919
    39d4:	3b297828 	xori	t1,t9,0x7828
    39d8:	736c6520 	0x736c6520
    39dc:	207b2065 	addi	k1,v1,8293
    39e0:	2e775f5f 	sltiu	s7,s3,24415
    39e4:	6c6c5f5f 	0x6c6c5f5f
    39e8:	28203d20 	slti	zero,at,15648
    39ec:	203b2978 	addi	k1,at,10616
    39f0:	2e725f5f 	sltiu	s2,s3,24415
    39f4:	5b6c5f5f 	0x5b6c5f5f
    39f8:	3d205d30 	0x3d205d30
    39fc:	625f5f20 	0x625f5f20
    3a00:	70617773 	0x70617773
    3a04:	2032335f 	addi	s2,at,13151
    3a08:	775f5f28 	jalx	d7d7ca0 <foobar+0xd7d7a54>
    3a0c:	6c5f5f2e 	0x6c5f5f2e
    3a10:	295d315b 	slti	sp,t2,12635
    3a14:	5f5f203b 	0x5f5f203b
    3a18:	5f5f2e72 	0x5f5f2e72
    3a1c:	5d315b6c 	0x5d315b6c
    3a20:	5f203d20 	0x5f203d20
    3a24:	7773625f 	jalx	dcd897c <foobar+0xdcd8730>
    3a28:	335f7061 	andi	ra,k0,0x7061
    3a2c:	5f282032 	0x5f282032
    3a30:	5f2e775f 	0x5f2e775f
    3a34:	305b6c5f 	andi	k1,v0,0x6c5f
    3a38:	203b295d 	addi	k1,at,10589
    3a3c:	5f5f207d 	0x5f5f207d
    3a40:	5f5f2e72 	0x5f5f2e72
    3a44:	203b6c6c 	addi	k1,at,27756
    3a48:	0029297d 	0x29297d
    3a4c:	68400104 	0x68400104
    3a50:	65626f74 	0x65626f74
    3a54:	78283631 	0x78283631
    3a58:	5f5f2029 	0x5f5f2029
    3a5c:	61777362 	0x61777362
    3a60:	36315f70 	ori	s1,s1,0x5f70
    3a64:	29782820 	slti	t8,t3,10272
    3a68:	68410100 	0x68410100
    3a6c:	656c6f74 	0x656c6f74
    3a70:	78283631 	0x78283631
    3a74:	78282029 	0x78282029
    3a78:	42010029 	c0	0x10029
    3a7c:	36316562 	ori	s1,s1,0x6562
    3a80:	28686f74 	slti	t0,v1,28532
    3a84:	5f202978 	0x5f202978
    3a88:	7773625f 	jalx	dcd897c <foobar+0xdcd8730>
    3a8c:	315f7061 	andi	ra,t2,0x7061
    3a90:	78282036 	0x78282036
    3a94:	43010029 	c0	0x1010029
    3a98:	3631656c 	ori	s1,s1,0x656c
    3a9c:	28686f74 	slti	t0,v1,28532
    3aa0:	28202978 	slti	zero,at,10616
    3aa4:	01002978 	0x1002978
    3aa8:	6f746845 	0x6f746845
    3aac:	32336562 	andi	s3,s1,0x6562
    3ab0:	20297828 	addi	t1,at,30760
    3ab4:	73625f5f 	0x73625f5f
    3ab8:	5f706177 	0x5f706177
    3abc:	28203233 	slti	zero,at,12851
    3ac0:	01002978 	0x1002978
    3ac4:	6f746846 	0x6f746846
    3ac8:	3233656c 	andi	s3,s1,0x656c
    3acc:	20297828 	addi	t1,at,30760
    3ad0:	00297828 	0x297828
    3ad4:	65624701 	0x65624701
    3ad8:	6f743233 	0x6f743233
    3adc:	29782868 	slti	t8,t3,10344
    3ae0:	625f5f20 	0x625f5f20
    3ae4:	70617773 	0x70617773
    3ae8:	2032335f 	addi	s2,at,13151
    3aec:	00297828 	0x297828
    3af0:	656c4801 	0x656c4801
    3af4:	6f743233 	0x6f743233
    3af8:	29782868 	slti	t8,t3,10344
    3afc:	29782820 	slti	t8,t3,10272
    3b00:	684a0100 	0x684a0100
    3b04:	65626f74 	0x65626f74
    3b08:	78283436 	0x78283436
    3b0c:	5f5f2029 	0x5f5f2029
    3b10:	61777362 	0x61777362
    3b14:	34365f70 	ori	s6,at,0x5f70
    3b18:	29782820 	slti	t8,t3,10272
    3b1c:	684b0100 	0x684b0100
    3b20:	656c6f74 	0x656c6f74
    3b24:	78283436 	0x78283436
    3b28:	78282029 	0x78282029
    3b2c:	4c010029 	0x4c010029
    3b30:	34366562 	ori	s6,at,0x6562
    3b34:	28686f74 	slti	t0,v1,28532
    3b38:	5f202978 	0x5f202978
    3b3c:	7773625f 	jalx	dcd897c <foobar+0xdcd8730>
    3b40:	365f7061 	ori	ra,s2,0x7061
    3b44:	78282034 	0x78282034
    3b48:	4d010029 	bc3t	3bf0 <.debug_macinfo+0x3bf0>
    3b4c:	3436656c 	ori	s6,at,0x656c
    3b50:	28686f74 	slti	t0,v1,28532
    3b54:	28202978 	slti	zero,at,10616
    3b58:	04002978 	bltz	zero,e13c <foobar+0xdef0>
    3b5c:	1101dc03 	beq	t0,at,ffffab6c <foobar+0xffffa920>
    3b60:	535f1701 	0x535f1701
    3b64:	535f5359 	0x535f5359
    3b68:	43454c45 	c0	0x1454c45
    3b6c:	20485f54 	addi	t0,v0,24404
    3b70:	1f030031 	0x1f030031
    3b74:	5f1a0112 	0x5f1a0112
    3b78:	5f44465f 	0x5f44465f
    3b7c:	4f52455a 	c3	0x152455a
    3b80:	20297328 	addi	t1,at,29480
    3b84:	7b206f64 	0x7b206f64
    3b88:	736e7520 	0x736e7520
    3b8c:	656e6769 	0x656e6769
    3b90:	6e692064 	0x6e692064
    3b94:	5f5f2074 	0x5f5f2074
    3b98:	66203b69 	0x66203b69
    3b9c:	65735f64 	0x65735f64
    3ba0:	5f2a2074 	0x5f2a2074
    3ba4:	7272615f 	0x7272615f
    3ba8:	28203d20 	slti	zero,at,15648
    3bac:	203b2973 	addi	k1,at,10611
    3bb0:	20726f66 	addi	s2,v1,28518
    3bb4:	695f5f28 	0x695f5f28
    3bb8:	30203d20 	andi	zero,at,0x3d20
    3bbc:	5f5f203b 	0x5f5f203b
    3bc0:	203c2069 	addi	gp,at,8297
    3bc4:	657a6973 	0x657a6973
    3bc8:	2820666f 	slti	zero,at,26223
    3bcc:	735f6466 	0x735f6466
    3bd0:	20297465 	addi	t1,at,29797
    3bd4:	6973202f 	0x6973202f
    3bd8:	666f657a 	0x666f657a
    3bdc:	5f5f2820 	0x5f5f2820
    3be0:	6d5f6466 	0x6d5f6466
    3be4:	296b7361 	slti	t3,t3,29537
    3be8:	2b2b203b 	slti	t3,t9,8251
    3bec:	29695f5f 	slti	t1,t3,24415
    3bf0:	465f5f20 	c1	0x5f5f20
    3bf4:	425f5344 	c0	0x5f5344
    3bf8:	20535449 	addi	s3,v0,21577
    3bfc:	615f5f28 	0x615f5f28
    3c00:	5b297272 	0x5b297272
    3c04:	5d695f5f 	0x5d695f5f
    3c08:	30203d20 	andi	zero,at,0x3d20
    3c0c:	207d203b 	addi	sp,v1,8251
    3c10:	6c696877 	0x6c696877
    3c14:	30282065 	andi	t0,at,0x2065
    3c18:	21010029 	addi	at,t0,41
    3c1c:	44465f5f 	0x44465f5f
    3c20:	5445535f 	0x5445535f
    3c24:	732c6428 	0x732c6428
    3c28:	5f282029 	0x5f282029
    3c2c:	5344465f 	0x5344465f
    3c30:	5449425f 	0x5449425f
    3c34:	73282053 	0x73282053
    3c38:	5f5f5b29 	0x5f5f5b29
    3c3c:	4c454446 	0x4c454446
    3c40:	29642854 	slti	a0,t3,10324
    3c44:	3d7c205d 	0x3d7c205d
    3c48:	465f5f20 	c1	0x5f5f20
    3c4c:	53414d44 	0x53414d44
    3c50:	2964284b 	slti	a0,t3,10315
    3c54:	22010029 	addi	at,s0,41
    3c58:	44465f5f 	0x44465f5f
    3c5c:	524c435f 	0x524c435f
    3c60:	732c6428 	0x732c6428
    3c64:	5f282029 	0x5f282029
    3c68:	5344465f 	0x5344465f
    3c6c:	5449425f 	0x5449425f
    3c70:	73282053 	0x73282053
    3c74:	5f5f5b29 	0x5f5f5b29
    3c78:	4c454446 	0x4c454446
    3c7c:	29642854 	slti	a0,t3,10324
    3c80:	3d26205d 	0x3d26205d
    3c84:	5f5f7e20 	0x5f5f7e20
    3c88:	414d4446 	0x414d4446
    3c8c:	64284b53 	0x64284b53
    3c90:	01002929 	0x1002929
    3c94:	465f5f23 	c1	0x5f5f23
    3c98:	53495f44 	0x53495f44
    3c9c:	28544553 	slti	s4,v0,17747
    3ca0:	29732c64 	slti	s3,t3,11364
    3ca4:	5f282820 	0x5f282820
    3ca8:	5344465f 	0x5344465f
    3cac:	5449425f 	0x5449425f
    3cb0:	73282053 	0x73282053
    3cb4:	5f5f5b29 	0x5f5f5b29
    3cb8:	4c454446 	0x4c454446
    3cbc:	29642854 	slti	a0,t3,10324
    3cc0:	2026205d 	addi	a2,at,8285
    3cc4:	44465f5f 	0x44465f5f
    3cc8:	4b53414d 	c2	0x153414d
    3ccc:	29296428 	slti	t1,t1,25640
    3cd0:	203d2120 	addi	sp,at,8480
    3cd4:	04002930 	bltz	zero,e198 <foobar+0xdf4c>
    3cd8:	01132203 	0x1132203
    3cdc:	49535f16 	0x49535f16
    3ce0:	54455347 	0x54455347
    3ce4:	745f485f 	jalx	17d217c <foobar+0x17d1f30>
    3ce8:	73657079 	0x73657079
    3cec:	01003120 	0x1003120
    3cf0:	49535f1c 	0x49535f1c
    3cf4:	54455347 	0x54455347
    3cf8:	4f574e5f 	c3	0x1574e5f
    3cfc:	20534452 	addi	s3,v0,17490
    3d00:	32303128 	andi	s0,s1,0x3128
    3d04:	202f2034 	addi	t7,at,8244
    3d08:	2a203828 	slti	zero,s1,14376
    3d0c:	7a697320 	0x7a697320
    3d10:	20666f65 	addi	a2,v1,28517
    3d14:	736e7528 	0x736e7528
    3d18:	656e6769 	0x656e6769
    3d1c:	6f6c2064 	0x6f6c2064
    3d20:	6920676e 	0x6920676e
    3d24:	2929746e 	slti	t1,t1,29806
    3d28:	01040029 	0x1040029
    3d2c:	735f5f25 	0x735f5f25
    3d30:	65736769 	0x65736769
    3d34:	5f745f74 	0x5f745f74
    3d38:	69666564 	0x69666564
    3d3c:	2064656e 	addi	a0,v1,25966
    3d40:	5f2a0100 	0x5f2a0100
    3d44:	65656e5f 	0x65656e5f
    3d48:	69745f64 	0x69745f64
    3d4c:	745f656d 	jalx	17d95b4 <foobar+0x17d9368>
    3d50:	2b010020 	slti	at,t8,32
    3d54:	656e5f5f 	0x656e5f5f
    3d58:	745f6465 	jalx	17d9194 <foobar+0x17d8f48>
    3d5c:	73656d69 	0x73656d69
    3d60:	20636570 	addi	v1,v1,25968
    3d64:	0d2c0300 	jal	4b00c00 <foobar+0x4b009b4>
    3d68:	5f5f4302 	0x5f5f4302
    3d6c:	6465656e 	0x6465656e
    3d70:	6f6c635f 	0x6f6c635f
    3d74:	745f6b63 	jalx	17dad8c <foobar+0x17dab40>
    3d78:	5f530200 	0x5f530200
    3d7c:	65656e5f 	0x65656e5f
    3d80:	69745f64 	0x69745f64
    3d84:	745f656d 	jalx	17d95b4 <foobar+0x17d9368>
    3d88:	5f5f0200 	0x5f5f0200
    3d8c:	6f6c635f 	0x6f6c635f
    3d90:	64696b63 	0x64696b63
    3d94:	6d69745f 	0x6d69745f
    3d98:	00745f65 	0x745f65
    3d9c:	5f5f6b02 	0x5f5f6b02
    3da0:	6465656e 	0x6465656e
    3da4:	6d69745f 	0x6d69745f
    3da8:	745f7265 	jalx	17dc994 <foobar+0x17dc748>
    3dac:	5f720100 	0x5f720100
    3db0:	6d69745f 	0x6d69745f
    3db4:	65707365 	0x65707365
    3db8:	65645f63 	0x65645f63
    3dbc:	656e6966 	0x656e6966
    3dc0:	00312064 	0x312064
    3dc4:	5f5f7f02 	0x5f5f7f02
    3dc8:	6465656e 	0x6465656e
    3dcc:	6d69745f 	0x6d69745f
    3dd0:	65707365 	0x65707365
    3dd4:	01040063 	0x1040063
    3dd8:	6e5f5f2d 	0x6e5f5f2d
    3ddc:	5f646565 	0x5f646565
    3de0:	656d6974 	0x656d6974
    3de4:	206c6176 	addi	t4,v1,24950
    3de8:	142e0300 	bne	at,t6,49ec <.debug_macinfo+0x49ec>
    3dec:	5f5f3e02 	0x5f5f3e02
    3df0:	6465656e 	0x6465656e
    3df4:	6d69745f 	0x6d69745f
    3df8:	6c617665 	0x6c617665
    3dfc:	5f400100 	0x5f400100
    3e00:	55525453 	0x55525453
    3e04:	545f5443 	0x545f5443
    3e08:	56454d49 	0x56454d49
    3e0c:	31204c41 	andi	zero,t1,0x4c41
    3e10:	32010400 	andi	at,s0,0x400
    3e14:	75735f5f 	jalx	5cd7d7c <foobar+0x5cd7b30>
    3e18:	6f636573 	0x6f636573
    3e1c:	5f73646e 	0x5f73646e
    3e20:	65645f74 	0x65645f74
    3e24:	656e6966 	0x656e6966
    3e28:	02002064 	0x2002064
    3e2c:	4e5f5f3a 	c3	0x5f5f3a
    3e30:	49424446 	0x49424446
    3e34:	02005354 	0x2005354
    3e38:	465f5f3b 	c1	0x5f5f3b
    3e3c:	544c4544 	0x544c4544
    3e40:	5f3c0200 	0x5f3c0200
    3e44:	4d44465f 	0x4d44465f
    3e48:	004b5341 	0x4b5341
    3e4c:	5f5f3e01 	0x5f5f3e01
    3e50:	4244464e 	c0	0x44464e
    3e54:	20535449 	addi	s3,v0,21577
    3e58:	2a203828 	slti	zero,s1,14376
    3e5c:	6e692820 	0x6e692820
    3e60:	73202974 	0x73202974
    3e64:	6f657a69 	0x6f657a69
    3e68:	5f282066 	0x5f282066
    3e6c:	5f64665f 	0x5f64665f
    3e70:	6b73616d 	0x6b73616d
    3e74:	01002929 	0x1002929
    3e78:	465f5f3f 	c1	0x5f5f3f
    3e7c:	544c4544 	0x544c4544
    3e80:	20296428 	addi	t1,at,25640
    3e84:	29642828 	slti	a0,t3,10280
    3e88:	5f202f20 	0x5f202f20
    3e8c:	44464e5f 	0x44464e5f
    3e90:	53544942 	0x53544942
    3e94:	40010029 	0x40010029
    3e98:	44465f5f 	0x44465f5f
    3e9c:	4b53414d 	c2	0x153414d
    3ea0:	20296428 	addi	t1,at,25640
    3ea4:	5f5f2828 	0x5f5f2828
    3ea8:	6d5f6466 	0x6d5f6466
    3eac:	296b7361 	slti	t3,t3,29537
    3eb0:	3c203120 	0x3c203120
    3eb4:	2828203c 	slti	t0,at,8252
    3eb8:	25202964 	addiu	zero,t1,10596
    3ebc:	4e5f5f20 	c3	0x5f5f20
    3ec0:	49424446 	0x49424446
    3ec4:	29295354 	slti	t1,t1,21332
    3ec8:	5f4c0100 	0x5f4c0100
    3ecc:	5344465f 	0x5344465f
    3ed0:	5449425f 	0x5449425f
    3ed4:	65732853 	0x65732853
    3ed8:	28202974 	slti	zero,at,10612
    3edc:	74657328 	jalx	195cca0 <foobar+0x195ca54>
    3ee0:	5f3e2d29 	0x5f3e2d29
    3ee4:	7364665f 	0x7364665f
    3ee8:	7469625f 	jalx	1a5897c <foobar+0x1a58730>
    3eec:	01002973 	0x1002973
    3ef0:	5f444651 	0x5f444651
    3ef4:	53544553 	0x53544553
    3ef8:	20455a49 	addi	a1,v0,23113
    3efc:	44465f5f 	0x44465f5f
    3f00:	5445535f 	0x5445535f
    3f04:	455a4953 	0x455a4953
    3f08:	4e580100 	c3	0x580100
    3f0c:	49424446 	0x49424446
    3f10:	5f205354 	0x5f205354
    3f14:	44464e5f 	0x44464e5f
    3f18:	53544942 	0x53544942
    3f1c:	465d0100 	c1	0x5d0100
    3f20:	45535f44 	0x45535f44
    3f24:	64662854 	0x64662854
    3f28:	7364662c 	0x7364662c
    3f2c:	29707465 	slti	s0,t3,29797
    3f30:	465f5f20 	c1	0x5f5f20
    3f34:	45535f44 	0x45535f44
    3f38:	66282054 	0x66282054
    3f3c:	66202c64 	0x66202c64
    3f40:	74657364 	jalx	195cd90 <foobar+0x195cb44>
    3f44:	01002970 	0x1002970
    3f48:	5f44465e 	0x5f44465e
    3f4c:	28524c43 	slti	s2,v0,19523
    3f50:	662c6466 	0x662c6466
    3f54:	74657364 	jalx	195cd90 <foobar+0x195cb44>
    3f58:	5f202970 	0x5f202970
    3f5c:	5f44465f 	0x5f44465f
    3f60:	20524c43 	addi	s2,v0,19523
    3f64:	2c646628 	sltiu	a0,v1,26152
    3f68:	73646620 	0x73646620
    3f6c:	29707465 	slti	s0,t3,29797
    3f70:	465f0100 	c1	0x5f0100
    3f74:	53495f44 	0x53495f44
    3f78:	28544553 	slti	s4,v0,17747
    3f7c:	662c6466 	0x662c6466
    3f80:	74657364 	jalx	195cd90 <foobar+0x195cb44>
    3f84:	5f202970 	0x5f202970
    3f88:	5f44465f 	0x5f44465f
    3f8c:	45535349 	0x45535349
    3f90:	66282054 	0x66282054
    3f94:	66202c64 	0x66202c64
    3f98:	74657364 	jalx	195cd90 <foobar+0x195cb44>
    3f9c:	01002970 	0x1002970
    3fa0:	5f444660 	0x5f444660
    3fa4:	4f52455a 	c3	0x152455a
    3fa8:	73646628 	0x73646628
    3fac:	29707465 	slti	s0,t3,29797
    3fb0:	465f5f20 	c1	0x5f5f20
    3fb4:	455a5f44 	0x455a5f44
    3fb8:	28204f52 	slti	zero,at,20306
    3fbc:	65736466 	0x65736466
    3fc0:	00297074 	0x297074
    3fc4:	01df0304 	0x1df0304
    3fc8:	5f160115 	0x5f160115
    3fcc:	5f535953 	0x5f535953
    3fd0:	4d535953 	0x4d535953
    3fd4:	4f524341 	c3	0x1524341
    3fd8:	20485f53 	addi	t0,v0,24403
    3fdc:	41010031 	bc0t	40a4 <.debug_macinfo+0x40a4>
    3fe0:	6f6a616d 	0x6f6a616d
    3fe4:	65642872 	0x65642872
    3fe8:	67202976 	0x67202976
    3fec:	645f756e 	0x645f756e
    3ff0:	6d5f7665 	0x6d5f7665
    3ff4:	726f6a61 	0x726f6a61
    3ff8:	65642820 	0x65642820
    3ffc:	01002976 	0x1002976
    4000:	6e696d42 	0x6e696d42
    4004:	6428726f 	0x6428726f
    4008:	20297665 	addi	t1,at,30309
    400c:	5f756e67 	0x5f756e67
    4010:	5f766564 	0x5f766564
    4014:	6f6e696d 	0x6f6e696d
    4018:	64282072 	0x64282072
    401c:	00297665 	0x297665
    4020:	616d4301 	0x616d4301
    4024:	6564656b 	0x6564656b
    4028:	616d2876 	0x616d2876
    402c:	696d2c6a 	0x696d2c6a
    4030:	6720296e 	0x6720296e
    4034:	645f756e 	0x645f756e
    4038:	6d5f7665 	0x6d5f7665
    403c:	64656b61 	0x64656b61
    4040:	28207665 	slti	zero,at,30309
    4044:	2c6a616d 	sltiu	t2,v1,24941
    4048:	6e696d20 	0x6e696d20
    404c:	01040029 	0x1040029
    4050:	5f5f01ec 	0x5f5f01ec
    4054:	636b6c62 	0x636b6c62
    4058:	745f746e 	jalx	17dd1b8 <foobar+0x17dcf6c>
    405c:	6665645f 	0x6665645f
    4060:	64656e69 	0x64656e69
    4064:	f0010020 	0xf0010020
    4068:	665f5f01 	0x665f5f01
    406c:	6b6c6273 	0x6b6c6273
    4070:	5f746e63 	0x5f746e63
    4074:	65645f74 	0x65645f74
    4078:	656e6966 	0x656e6966
    407c:	01002064 	0x1002064
    4080:	5f5f01f4 	0x5f5f01f4
    4084:	69667366 	0x69667366
    4088:	746e636c 	jalx	1b98db0 <foobar+0x1b98b64>
    408c:	645f745f 	0x645f745f
    4090:	6e696665 	0x6e696665
    4094:	00206465 	0x206465
    4098:	16028e03 	bne	s0,v0,fffe78a8 <foobar+0xfffe765c>
    409c:	425f1501 	c0	0x5f1501
    40a0:	5f535449 	0x5f535449
    40a4:	52485450 	0x52485450
    40a8:	54444145 	0x54444145
    40ac:	53455059 	0x53455059
    40b0:	3120485f 	andi	zero,t1,0x485f
    40b4:	5f240100 	0x5f240100
    40b8:	5a49535f 	0x5a49535f
    40bc:	5f464f45 	0x5f464f45
    40c0:	52485450 	0x52485450
    40c4:	5f444145 	0x5f444145
    40c8:	52545441 	0x52545441
    40cc:	3320545f 	andi	zero,t9,0x545f
    40d0:	25010036 	addiu	at,t0,54
    40d4:	49535f5f 	0x49535f5f
    40d8:	464f455a 	c1	0x4f455a
    40dc:	4854505f 	0x4854505f
    40e0:	44414552 	0x44414552
    40e4:	54554d5f 	0x54554d5f
    40e8:	545f5845 	0x545f5845
    40ec:	00343220 	0x343220
    40f0:	5f5f2601 	0x5f5f2601
    40f4:	455a4953 	0x455a4953
    40f8:	505f464f 	0x505f464f
    40fc:	45524854 	0x45524854
    4100:	4d5f4441 	0x4d5f4441
    4104:	58455455 	0x58455455
    4108:	52545441 	0x52545441
    410c:	3420545f 	ori	zero,at,0x545f
    4110:	5f270100 	0x5f270100
    4114:	5a49535f 	0x5a49535f
    4118:	5f464f45 	0x5f464f45
    411c:	52485450 	0x52485450
    4120:	5f444145 	0x5f444145
    4124:	444e4f43 	0x444e4f43
    4128:	3420545f 	ori	zero,at,0x545f
    412c:	28010038 	slti	at,zero,56
    4130:	49535f5f 	0x49535f5f
    4134:	464f455a 	c1	0x4f455a
    4138:	4854505f 	0x4854505f
    413c:	44414552 	0x44414552
    4140:	4e4f435f 	c3	0x4f435f
    4144:	54544144 	0x54544144
    4148:	20545f52 	addi	s4,v0,24402
    414c:	29010034 	slti	at,t0,52
    4150:	49535f5f 	0x49535f5f
    4154:	464f455a 	c1	0x4f455a
    4158:	4854505f 	0x4854505f
    415c:	44414552 	0x44414552
    4160:	4c57525f 	0x4c57525f
    4164:	5f4b434f 	0x5f4b434f
    4168:	32332054 	andi	s3,s1,0x2054
    416c:	5f2a0100 	0x5f2a0100
    4170:	5a49535f 	0x5a49535f
    4174:	5f464f45 	0x5f464f45
    4178:	52485450 	0x52485450
    417c:	5f444145 	0x5f444145
    4180:	4f4c5752 	c3	0x14c5752
    4184:	54414b43 	0x54414b43
    4188:	545f5254 	0x545f5254
    418c:	01003820 	add	a3,t0,zero
    4190:	535f5f2b 	0x535f5f2b
    4194:	4f455a49 	c3	0x1455a49
    4198:	54505f46 	0x54505f46
    419c:	41455248 	0x41455248
    41a0:	41425f44 	0x41425f44
    41a4:	45495252 	0x45495252
    41a8:	20545f52 	addi	s4,v0,24402
    41ac:	01003032 	0x1003032
    41b0:	535f5f2c 	0x535f5f2c
    41b4:	4f455a49 	c3	0x1455a49
    41b8:	54505f46 	0x54505f46
    41bc:	41455248 	0x41455248
    41c0:	41425f44 	0x41425f44
    41c4:	45495252 	0x45495252
    41c8:	54544152 	0x54544152
    41cc:	20545f52 	addi	s4,v0,24402
    41d0:	04040034 	0x4040034
    41d4:	5f03d401 	0x5f03d401
    41d8:	6c616d5f 	0x6c616d5f
    41dc:	5f636f6c 	0x5f636f6c
    41e0:	5f646e61 	0x5f646e61
    41e4:	6c6c6163 	0x6c6c6163
    41e8:	645f636f 	0x645f636f
    41ec:	6e696665 	0x6e696665
    41f0:	00206465 	0x206465
    41f4:	1703f103 	bne	t8,v1,604 <.debug_macinfo+0x604>
    41f8:	415f1401 	0x415f1401
    41fc:	434f4c4c 	c0	0x14f4c4c
    4200:	20485f41 	addi	t0,v0,24385
    4204:	18010031 	0x18010031
    4208:	656e5f5f 	0x656e5f5f
    420c:	735f6465 	0x735f6465
    4210:	5f657a69 	0x5f657a69
    4214:	03002074 	0x3002074
    4218:	e9020919 	swc2	$2,2329(t0)
    421c:	6e5f5f01 	0x6e5f5f01
    4220:	5f646565 	0x5f646565
    4224:	657a6973 	0x657a6973
    4228:	0200745f 	0x200745f
    422c:	5f5f0396 	0x5f5f0396
    4230:	6465656e 	0x6465656e
    4234:	4c554e5f 	0x4c554e5f
    4238:	0204004c 	syscall	0x81001
    423c:	6c6c611e 	0x6c6c611e
    4240:	0061636f 	0x61636f
    4244:	6c612401 	0x6c612401
    4248:	61636f6c 	0x61636f6c
    424c:	7a697328 	0x7a697328
    4250:	5f202965 	0x5f202965
    4254:	6975625f 	0x6975625f
    4258:	6e69746c 	0x6e69746c
    425c:	6c6c615f 	0x6c6c615f
    4260:	2061636f 	addi	at,v1,25455
    4264:	7a697328 	0x7a697328
    4268:	04002965 	bltz	zero,e800 <foobar+0xe5b4>
    426c:	5f05e001 	0x5f05e001
    4270:	4d4f435f 	0x4d4f435f
    4274:	5f524150 	0x5f524150
    4278:	545f4e46 	0x545f4e46
    427c:	bc020020 	0xbc020020
    4280:	6e5f5f07 	0x6e5f5f07
    4284:	5f646565 	0x5f646565
    4288:	6c6c616d 	0x6c6c616d
    428c:	615f636f 	0x615f636f
    4290:	635f646e 	0x635f646e
    4294:	6f6c6c61 	0x6f6c6c61
    4298:	03040063 	0x3040063
    429c:	18011807 	0x18011807
    42a0:	5254535f 	0x5254535f
    42a4:	5f474e49 	0x5f474e49
    42a8:	00312048 	0x312048
    42ac:	5f5f1f01 	0x5f5f1f01
    42b0:	6465656e 	0x6465656e
    42b4:	7a69735f 	0x7a69735f
    42b8:	20745f65 	addi	s4,v1,24421
    42bc:	5f200100 	0x5f200100
    42c0:	65656e5f 	0x65656e5f
    42c4:	554e5f64 	0x554e5f64
    42c8:	00204c4c 	syscall	0x8131
    42cc:	02092103 	0x2092103
    42d0:	5f5f01e9 	0x5f5f01e9
    42d4:	6465656e 	0x6465656e
    42d8:	7a69735f 	0x7a69735f
    42dc:	00745f65 	0x745f65
    42e0:	4e038b02 	c3	0x38b02
    42e4:	004c4c55 	0x4c4c55
    42e8:	4e039001 	c3	0x39001
    42ec:	204c4c55 	addi	t4,v0,19541
    42f0:	6f762828 	0x6f762828
    42f4:	2a206469 	slti	zero,s1,25705
    42f8:	00293029 	0x293029
    42fc:	5f039602 	0x5f039602
    4300:	65656e5f 	0x65656e5f
    4304:	554e5f64 	0x554e5f64
    4308:	04004c4c 	bltz	zero,1743c <foobar+0x171f0>
    430c:	1901a103 	0x1901a103
    4310:	585f1601 	0x585f1601
    4314:	41434f4c 	0x41434f4c
    4318:	485f454c 	0x485f454c
    431c:	04003120 	bltz	zero,107a0 <foobar+0x10554>
    4320:	1a080304 	0x1a080304
    4324:	535f1b01 	0x535f1b01
    4328:	4f494454 	c3	0x1494454
    432c:	3120485f 	andi	zero,t1,0x485f
    4330:	5f200100 	0x5f200100
    4334:	65656e5f 	0x65656e5f
    4338:	69735f64 	0x69735f64
    433c:	745f657a 	jalx	17d95e8 <foobar+0x17d939c>
    4340:	21010020 	addi	at,t0,32
    4344:	656e5f5f 	0x656e5f5f
    4348:	4e5f6465 	c3	0x5f6465
    434c:	204c4c55 	addi	t4,v0,19541
    4350:	09220300 	j	4880c00 <foobar+0x48809b4>
    4354:	5f01e902 	0x5f01e902
    4358:	65656e5f 	0x65656e5f
    435c:	69735f64 	0x69735f64
    4360:	745f657a 	jalx	17d95e8 <foobar+0x17d939c>
    4364:	038b0200 	0x38b0200
    4368:	4c4c554e 	0x4c4c554e
    436c:	03900100 	0x3900100
    4370:	4c4c554e 	0x4c4c554e
    4374:	76282820 	jalx	8a0a080 <foobar+0x8a09e34>
    4378:	2064696f 	addi	a0,v1,26991
    437c:	2930292a 	slti	s0,t1,10538
    4380:	03960200 	0x3960200
    4384:	656e5f5f 	0x656e5f5f
    4388:	4e5f6465 	c3	0x5f6465
    438c:	004c4c55 	0x4c4c55
    4390:	5f250104 	0x5f250104
    4394:	65656e5f 	0x65656e5f
    4398:	49465f64 	0x49465f64
    439c:	0020454c 	syscall	0x8115
    43a0:	5f5f2601 	0x5f5f2601
    43a4:	6465656e 	0x6465656e
    43a8:	465f5f5f 	c1	0x5f5f5f
    43ac:	20454c49 	addi	a1,v0,19529
    43b0:	5f390100 	0x5f390100
    43b4:	4c49465f 	0x4c49465f
    43b8:	65645f45 	0x65645f45
    43bc:	656e6966 	0x656e6966
    43c0:	00312064 	0x312064
    43c4:	5f5f3b02 	0x5f5f3b02
    43c8:	6465656e 	0x6465656e
    43cc:	4c49465f 	0x4c49465f
    43d0:	43010045 	c0	0x1010045
    43d4:	5f5f5f5f 	0x5f5f5f5f
    43d8:	454c4946 	0x454c4946
    43dc:	6665645f 	0x6665645f
    43e0:	64656e69 	0x64656e69
    43e4:	02003120 	0x2003120
    43e8:	6e5f5f45 	0x6e5f5f45
    43ec:	5f646565 	0x5f646565
    43f0:	49465f5f 	0x49465f5f
    43f4:	0100454c 	syscall	0x40115
    43f8:	54535f49 	0x54535f49
    43fc:	5f4f4944 	0x5f4f4944
    4400:	53455355 	0x53455355
    4404:	534f495f 	0x534f495f
    4408:	41455254 	0x41455254
    440c:	0300204d 	break	0x300,0x81
    4410:	1e011b4b 	0x1e011b4b
    4414:	5f4f495f 	0x5f4f495f
    4418:	49445453 	0x49445453
    441c:	20485f4f 	addi	t0,v0,24399
    4420:	1c200300 	bgtz	at,5024 <.debug_macinfo+0x5024>
    4424:	475f0501 	c1	0x15f0501
    4428:	6e6f635f 	0x6e6f635f
    442c:	5f676966 	0x5f676966
    4430:	00312068 	0x312068
    4434:	5f5f0a01 	0x5f5f0a01
    4438:	6465656e 	0x6465656e
    443c:	7a69735f 	0x7a69735f
    4440:	20745f65 	addi	s4,v1,24421
    4444:	5f0e0100 	0x5f0e0100
    4448:	65656e5f 	0x65656e5f
    444c:	554e5f64 	0x554e5f64
    4450:	00204c4c 	syscall	0x8131
    4454:	02090f03 	0x2090f03
    4458:	5f5f01e9 	0x5f5f01e9
    445c:	6465656e 	0x6465656e
    4460:	7a69735f 	0x7a69735f
    4464:	00745f65 	0x745f65
    4468:	4e038b02 	c3	0x38b02
    446c:	004c4c55 	0x4c4c55
    4470:	4e039001 	c3	0x39001
    4474:	204c4c55 	addi	t4,v0,19541
    4478:	6f762828 	0x6f762828
    447c:	2a206469 	slti	zero,s1,25705
    4480:	00293029 	0x293029
    4484:	5f039602 	0x5f039602
    4488:	65656e5f 	0x65656e5f
    448c:	554e5f64 	0x554e5f64
    4490:	04004c4c 	bltz	zero,175c4 <foobar+0x17378>
    4494:	5f5f1001 	0x5f5f1001
    4498:	6465656e 	0x6465656e
    449c:	73626d5f 	0x73626d5f
    44a0:	65746174 	0x65746174
    44a4:	0020745f 	0x20745f
    44a8:	011d1403 	0x11d1403
    44ac:	6d5f5f51 	0x6d5f5f51
    44b0:	61747362 	0x61747362
    44b4:	745f6574 	jalx	17d95d0 <foobar+0x17d9384>
    44b8:	6665645f 	0x6665645f
    44bc:	64656e69 	0x64656e69
    44c0:	02003120 	0x2003120
    44c4:	6e5f5f61 	0x6e5f5f61
    44c8:	5f646565 	0x5f646565
    44cc:	7473626d 	jalx	1cd89b4 <foobar+0x1cd8768>
    44d0:	5f657461 	0x5f657461
    44d4:	82020074 	lb	v0,116(s0)
    44d8:	6e5f5f07 	0x6e5f5f07
    44dc:	5f646565 	0x5f646565
    44e0:	7473626d 	jalx	1cd89b4 <foobar+0x1cd8768>
    44e4:	5f657461 	0x5f657461
    44e8:	83020074 	lb	v0,116(t8)
    44ec:	6e5f5f07 	0x6e5f5f07
    44f0:	5f646565 	0x5f646565
    44f4:	746e6977 	jalx	1b9a5dc <foobar+0x1b9a390>
    44f8:	0400745f 	bltz	zero,21678 <foobar+0x2142c>
    44fc:	475f1501 	c1	0x15f1501
    4500:	7a69735f 	0x7a69735f
    4504:	20745f65 	addi	s4,v1,24421
    4508:	657a6973 	0x657a6973
    450c:	0100745f 	0x100745f
    4510:	5f475f20 	0x5f475f20
    4514:	7a697373 	0x7a697373
    4518:	20745f65 	addi	s4,v1,24421
    451c:	73735f5f 	0x73735f5f
    4520:	5f657a69 	0x5f657a69
    4524:	21010074 	addi	at,t0,116
    4528:	6f5f475f 	0x6f5f475f
    452c:	745f6666 	jalx	17d9998 <foobar+0x17d974c>
    4530:	6f5f5f20 	0x6f5f5f20
    4534:	745f6666 	jalx	17d9998 <foobar+0x17d974c>
    4538:	5f220100 	0x5f220100
    453c:	666f5f47 	0x666f5f47
    4540:	5f343666 	0x5f343666
    4544:	5f5f2074 	0x5f5f2074
    4548:	3666666f 	ori	a2,s3,0x666f
    454c:	00745f34 	0x745f34
    4550:	475f2301 	c1	0x15f2301
    4554:	6469705f 	0x6469705f
    4558:	5f20745f 	0x5f20745f
    455c:	6469705f 	0x6469705f
    4560:	0100745f 	0x100745f
    4564:	5f475f24 	0x5f475f24
    4568:	5f646975 	0x5f646975
    456c:	5f5f2074 	0x5f5f2074
    4570:	5f646975 	0x5f646975
    4574:	25010074 	addiu	at,t0,116
    4578:	775f475f 	jalx	d7d1d7c <foobar+0xd7d1b30>
    457c:	72616863 	0x72616863
    4580:	7720745f 	jalx	c81d17c <foobar+0xc81cf30>
    4584:	72616863 	0x72616863
    4588:	0100745f 	0x100745f
    458c:	5f475f26 	0x5f475f26
    4590:	746e6977 	jalx	1b9a5dc <foobar+0x1b9a390>
    4594:	7720745f 	jalx	c81d17c <foobar+0xc81cf30>
    4598:	5f746e69 	0x5f746e69
    459c:	27010074 	addiu	at,t8,116
    45a0:	735f475f 	0x735f475f
    45a4:	36746174 	ori	s4,s3,0x6174
    45a8:	74732034 	jalx	1cc80d0 <foobar+0x1cc7e84>
    45ac:	34367461 	ori	s6,at,0x7461
    45b0:	5f3a0100 	0x5f3a0100
    45b4:	41485f47 	0x41485f47
    45b8:	425f4556 	c0	0x5f4556
    45bc:	204c4f4f 	addi	t4,v0,20303
    45c0:	3e010031 	0x3e010031
    45c4:	485f475f 	0x485f475f
    45c8:	5f455641 	0x5f455641
    45cc:	58455441 	0x58455441
    45d0:	31205449 	andi	zero,t1,0x5449
    45d4:	5f3f0100 	0x5f3f0100
    45d8:	41485f47 	0x41485f47
    45dc:	535f4556 	0x535f4556
    45e0:	435f5359 	c0	0x15f5359
    45e4:	53464544 	0x53464544
    45e8:	01003120 	0x1003120
    45ec:	5f475f40 	0x5f475f40
    45f0:	45564148 	0x45564148
    45f4:	5359535f 	0x5359535f
    45f8:	4941575f 	0x4941575f
    45fc:	00312054 	0x312054
    4600:	475f4101 	c1	0x15f4101
    4604:	45454e5f 	0x45454e5f
    4608:	54535f44 	0x54535f44
    460c:	47524144 	c1	0x1524144
    4610:	3120485f 	andi	zero,t1,0x485f
    4614:	5f420100 	0x5f420100
    4618:	61765f47 	0x61765f47
    461c:	73696c5f 	0x73696c5f
    4620:	5f5f2074 	0x5f5f2074
    4624:	63756e67 	0x63756e67
    4628:	5f61765f 	0x5f61765f
    462c:	7473696c 	jalx	1cda5b0 <foobar+0x1cda364>
    4630:	5f440100 	0x5f440100
    4634:	41485f47 	0x41485f47
    4638:	505f4556 	0x505f4556
    463c:	544e4952 	0x544e4952
    4640:	50465f46 	0x50465f46
    4644:	01003120 	0x1003120
    4648:	5f475f45 	0x5f475f45
    464c:	45564148 	0x45564148
    4650:	414d4d5f 	0x414d4d5f
    4654:	00312050 	0x312050
    4658:	475f4601 	c1	0x15f4601
    465c:	5641485f 	0x5641485f
    4660:	524d5f45 	0x524d5f45
    4664:	50414d45 	0x50414d45
    4668:	01003120 	0x1003120
    466c:	5f475f47 	0x5f475f47
    4670:	45564148 	0x45564148
    4674:	4e4f4c5f 	c3	0x4f4c5f
    4678:	4f445f47 	c3	0x1445f47
    467c:	454c4255 	0x454c4255
    4680:	204f495f 	addi	t7,v0,18783
    4684:	48010031 	0x48010031
    4688:	485f475f 	0x485f475f
    468c:	5f455641 	0x5f455641
    4690:	465f4f49 	c1	0x5f4f49
    4694:	5f454c49 	0x5f454c49
    4698:	4e45504f 	c3	0x45504f
    469c:	01003120 	0x1003120
    46a0:	5f475f49 	0x5f475f49
    46a4:	45564148 	0x45564148
    46a8:	5f4f495f 	0x5f4f495f
    46ac:	4c544547 	0x4c544547
    46b0:	5f454e49 	0x5f454e49
    46b4:	4f464e49 	c3	0x1464e49
    46b8:	01003120 	0x1003120
    46bc:	5f475f4b 	0x5f475f4b
    46c0:	495f4f49 	0x495f4f49
    46c4:	49465f4f 	0x49465f4f
    46c8:	565f454c 	0x565f454c
    46cc:	49535245 	0x49535245
    46d0:	30204e4f 	andi	zero,at,0x4e4f
    46d4:	30303278 	andi	s0,at,0x3278
    46d8:	01003130 	0x1003130
    46dc:	5f475f4d 	0x5f475f4d
    46e0:	4e45504f 	c3	0x45504f
    46e4:	5f203436 	0x5f203436
    46e8:	65706f5f 	0x65706f5f
    46ec:	0034366e 	0x34366e
    46f0:	475f4e01 	c1	0x15f4e01
    46f4:	45534c5f 	0x45534c5f
    46f8:	34364b45 	ori	s6,at,0x4b45
    46fc:	6c5f5f20 	0x6c5f5f20
    4700:	6b656573 	0x6b656573
    4704:	01003436 	0x1003436
    4708:	5f475f4f 	0x5f475f4f
    470c:	50414d4d 	0x50414d4d
    4710:	5f203436 	0x5f203436
    4714:	616d6d5f 	0x616d6d5f
    4718:	00343670 	0x343670
    471c:	475f5001 	c1	0x15f5001
    4720:	5453465f 	0x5453465f
    4724:	34365441 	ori	s6,at,0x5441
    4728:	2c646628 	sltiu	a0,v1,26152
    472c:	29667562 	slti	a2,t3,30050
    4730:	665f5f20 	0x665f5f20
    4734:	61747378 	0x61747378
    4738:	20343674 	addi	s4,at,13940
    473c:	54535f28 	0x54535f28
    4740:	565f5441 	0x565f5441
    4744:	202c5245 	addi	t4,at,21061
    4748:	202c6466 	addi	t4,at,25702
    474c:	29667562 	slti	a2,t3,30050
    4750:	5f530100 	0x5f530100
    4754:	41485f47 	0x41485f47
    4758:	535f4556 	0x535f4556
    475c:	4c425f54 	0x4c425f54
    4760:	5a49534b 	0x5a49534b
    4764:	65642045 	0x65642045
    4768:	656e6966 	0x656e6966
    476c:	5f282064 	0x5f282064
    4770:	54415453 	0x54415453
    4774:	5f465542 	0x5f465542
    4778:	425f5453 	c0	0x5f5453
    477c:	49534b4c 	0x49534b4c
    4780:	0029455a 	0x29455a
    4784:	475f5501 	c1	0x15f5501
    4788:	4655425f 	c1	0x55425f
    478c:	205a4953 	addi	k0,v0,18771
    4790:	32393138 	andi	t9,s1,0x3138
    4794:	5f580100 	0x5f580100
    4798:	414e5f47 	0x414e5f47
    479c:	5f53454d 	0x5f53454d
    47a0:	45564148 	0x45564148
    47a4:	444e555f 	0x444e555f
    47a8:	43535245 	c0	0x1535245
    47ac:	2045524f 	addi	a1,v0,21071
    47b0:	59010030 	0x59010030
    47b4:	565f475f 	0x565f475f
    47b8:	4c424154 	0x4c424154
    47bc:	414c5f45 	0x414c5f45
    47c0:	5f4c4542 	0x5f4c4542
    47c4:	5f534148 	0x5f534148
    47c8:	474e454c 	c1	0x14e454c
    47cc:	31204854 	andi	zero,t1,0x4854
    47d0:	5f5a0100 	0x5f5a0100
    47d4:	53555f47 	0x53555f47
    47d8:	5f474e49 	0x5f474e49
    47dc:	4e554854 	c3	0x554854
    47e0:	3120534b 	andi	zero,t1,0x534b
    47e4:	5f5b0100 	0x5f5b0100
    47e8:	54565f47 	0x54565f47
    47ec:	454c4241 	0x454c4241
    47f0:	42414c5f 	c0	0x414c5f
    47f4:	505f4c45 	0x505f4c45
    47f8:	49464552 	0x49464552
    47fc:	5f222058 	0x5f222058
    4800:	5f74765f 	0x5f74765f
    4804:	5c010022 	0x5c010022
    4808:	565f475f 	0x565f475f
    480c:	4c424154 	0x4c424154
    4810:	414c5f45 	0x414c5f45
    4814:	5f4c4542 	0x5f4c4542
    4818:	46455250 	c1	0x455250
    481c:	495f5849 	0x495f5849
    4820:	5f5f2044 	0x5f5f2044
    4824:	005f7476 	0x5f7476
    4828:	475f6001 	c1	0x15f6001
    482c:	4752415f 	c1	0x152415f
    4830:	52412853 	0x52412853
    4834:	53494c47 	0x53494c47
    4838:	41202954 	0x41202954
    483c:	494c4752 	0x494c4752
    4840:	04005453 	bltz	zero,19990 <foobar+0x19744>
    4844:	495f2201 	0x495f2201
    4848:	6f705f4f 	0x6f705f4f
    484c:	20745f73 	addi	s4,v1,24435
    4850:	665f475f 	0x665f475f
    4854:	5f736f70 	0x5f736f70
    4858:	23010074 	addi	at,t8,116
    485c:	5f4f495f 	0x5f4f495f
    4860:	736f7066 	0x736f7066
    4864:	5f20745f 	0x5f20745f
    4868:	70665f47 	0x70665f47
    486c:	745f736f 	jalx	17dcdbc <foobar+0x17dcb70>
    4870:	5f240100 	0x5f240100
    4874:	665f4f49 	0x665f4f49
    4878:	36736f70 	ori	s3,s3,0x6f70
    487c:	20745f34 	addi	s4,v1,24372
    4880:	665f475f 	0x665f475f
    4884:	36736f70 	ori	s3,s3,0x6f70
    4888:	00745f34 	0x745f34
    488c:	495f2501 	0x495f2501
    4890:	69735f4f 	0x69735f4f
    4894:	745f657a 	jalx	17d95e8 <foobar+0x17d939c>
    4898:	5f475f20 	0x5f475f20
    489c:	657a6973 	0x657a6973
    48a0:	0100745f 	0x100745f
    48a4:	4f495f26 	c3	0x1495f26
    48a8:	6973735f 	0x6973735f
    48ac:	745f657a 	jalx	17d95e8 <foobar+0x17d939c>
    48b0:	5f475f20 	0x5f475f20
    48b4:	7a697373 	0x7a697373
    48b8:	00745f65 	0x745f65
    48bc:	495f2701 	0x495f2701
    48c0:	666f5f4f 	0x666f5f4f
    48c4:	20745f66 	addi	s4,v1,24422
    48c8:	6f5f475f 	0x6f5f475f
    48cc:	745f6666 	jalx	17d9998 <foobar+0x17d974c>
    48d0:	5f280100 	0x5f280100
    48d4:	6f5f4f49 	0x6f5f4f49
    48d8:	34366666 	ori	s6,at,0x6666
    48dc:	5f20745f 	0x5f20745f
    48e0:	666f5f47 	0x666f5f47
    48e4:	5f343666 	0x5f343666
    48e8:	29010074 	slti	at,t0,116
    48ec:	5f4f495f 	0x5f4f495f
    48f0:	5f646970 	0x5f646970
    48f4:	475f2074 	c1	0x15f2074
    48f8:	6469705f 	0x6469705f
    48fc:	0100745f 	0x100745f
    4900:	4f495f2a 	c3	0x1495f2a
    4904:	6469755f 	0x6469755f
    4908:	5f20745f 	0x5f20745f
    490c:	69755f47 	0x69755f47
    4910:	00745f64 	0x745f64
    4914:	495f2b01 	0x495f2b01
    4918:	63695f4f 	0x63695f4f
    491c:	5f766e6f 	0x5f766e6f
    4920:	475f2074 	c1	0x15f2074
    4924:	6f63695f 	0x6f63695f
    4928:	745f766e 	jalx	17dd9b8 <foobar+0x17dd76c>
    492c:	5f2c0100 	0x5f2c0100
    4930:	485f4f49 	0x485f4f49
    4934:	5f455641 	0x5f455641
    4938:	5f535953 	0x5f535953
    493c:	54494157 	0x54494157
    4940:	5f475f20 	0x5f475f20
    4944:	45564148 	0x45564148
    4948:	5359535f 	0x5359535f
    494c:	4941575f 	0x4941575f
    4950:	2d010054 	sltiu	at,t0,84
    4954:	5f4f495f 	0x5f4f495f
    4958:	45564148 	0x45564148
    495c:	5f54535f 	0x5f54535f
    4960:	534b4c42 	0x534b4c42
    4964:	20455a49 	addi	a1,v0,23113
    4968:	485f475f 	0x485f475f
    496c:	5f455641 	0x5f455641
    4970:	425f5453 	c0	0x5f5453
    4974:	49534b4c 	0x49534b4c
    4978:	0100455a 	0x100455a
    497c:	4f495f2e 	c3	0x1495f2e
    4980:	4655425f 	c1	0x55425f
    4984:	205a4953 	addi	k0,v0,18771
    4988:	425f475f 	c0	0x5f475f
    498c:	49534655 	0x49534655
    4990:	2f01005a 	sltiu	at,t8,90
    4994:	5f4f495f 	0x5f4f495f
    4998:	6c5f6176 	0x6c5f6176
    499c:	20747369 	addi	s4,v1,29545
    49a0:	765f475f 	jalx	97d1d7c <foobar+0x97d1b30>
    49a4:	696c5f61 	0x696c5f61
    49a8:	01007473 	0x1007473
    49ac:	4f495f30 	c3	0x1495f30
    49b0:	6e69775f 	0x6e69775f
    49b4:	20745f74 	addi	s4,v1,24436
    49b8:	775f475f 	jalx	d7d1d7c <foobar+0xd7d1b30>
    49bc:	5f746e69 	0x5f746e69
    49c0:	34010074 	li	at,0x74
    49c4:	656e5f5f 	0x656e5f5f
    49c8:	5f5f6465 	0x5f5f6465
    49cc:	5f61765f 	0x5f61765f
    49d0:	7473696c 	jalx	1cda5b0 <foobar+0x1cda364>
    49d4:	35030020 	ori	v1,t0,0x20
    49d8:	5f22021e 	0x5f22021e
    49dc:	65656e5f 	0x65656e5f
    49e0:	5f5f5f64 	0x5f5f5f64
    49e4:	6c5f6176 	0x6c5f6176
    49e8:	00747369 	0x747369
    49ec:	5f5f2701 	0x5f5f2701
    49f0:	43554e47 	c0	0x1554e47
    49f4:	5f41565f 	0x5f41565f
    49f8:	5453494c 	0x5453494c
    49fc:	02040020 	add	zero,s0,a0
    4a00:	4f495f37 	c3	0x1495f37
    4a04:	5f61765f 	0x5f61765f
    4a08:	7473696c 	jalx	1cda5b0 <foobar+0x1cda364>
    4a0c:	5f380100 	0x5f380100
    4a10:	765f4f49 	jalx	97d3d24 <foobar+0x97d3ad8>
    4a14:	696c5f61 	0x696c5f61
    4a18:	5f207473 	0x5f207473
    4a1c:	756e675f 	jalx	5b99d7c <foobar+0x5b99b30>
    4a20:	61765f63 	0x61765f63
    4a24:	73696c5f 	0x73696c5f
    4a28:	4c010074 	0x4c010074
    4a2c:	5241505f 	0x5241505f
    4a30:	28534d41 	slti	s3,v0,19777
    4a34:	746f7270 	jalx	1bdc9c0 <foobar+0x1bdc774>
    4a38:	2029736f 	addi	t1,at,29551
    4a3c:	28505f5f 	slti	s0,v0,24415
    4a40:	746f7270 	jalx	1bdc9c0 <foobar+0x1bdc774>
    4a44:	0029736f 	0x29736f
    4a48:	495f5401 	0x495f5401
    4a4c:	4e555f4f 	c3	0x555f4f
    4a50:	45494649 	0x45494649
    4a54:	554a5f44 	0x554a5f44
    4a58:	4154504d 	0x4154504d
    4a5c:	53454c42 	0x53454c42
    4a60:	01003120 	0x1003120
    4a64:	464f455a 	c1	0x4f455a
    4a68:	312d2820 	andi	t5,t1,0x2820
    4a6c:	69010029 	0x69010029
    4a70:	534f495f 	0x534f495f
    4a74:	504e495f 	0x504e495f
    4a78:	31205455 	andi	zero,t1,0x5455
    4a7c:	5f6a0100 	0x5f6a0100
    4a80:	5f534f49 	0x5f534f49
    4a84:	5054554f 	0x5054554f
    4a88:	32205455 	andi	zero,s1,0x5455
    4a8c:	5f6b0100 	0x5f6b0100
    4a90:	5f534f49 	0x5f534f49
    4a94:	4e455441 	c3	0x455441
    4a98:	00342044 	0x342044
    4a9c:	495f6c01 	0x495f6c01
    4aa0:	415f534f 	0x415f534f
    4aa4:	4e455050 	c3	0x455050
    4aa8:	00382044 	0x382044
    4aac:	495f6d01 	0x495f6d01
    4ab0:	545f534f 	0x545f534f
    4ab4:	434e5552 	c0	0x14e5552
    4ab8:	00363120 	0x363120
    4abc:	495f6e01 	0x495f6e01
    4ac0:	4e5f534f 	c3	0x5f534f
    4ac4:	4552434f 	0x4552434f
    4ac8:	20455441 	addi	a1,v0,21569
    4acc:	01003233 	0x1003233
    4ad0:	4f495f6f 	c3	0x1495f6f
    4ad4:	4f4e5f53 	c3	0x14e5f53
    4ad8:	4c504552 	0x4c504552
    4adc:	20454341 	addi	a1,v0,17217
    4ae0:	01003436 	0x1003436
    4ae4:	4f495f70 	c3	0x1495f70
    4ae8:	49425f53 	0x49425f53
    4aec:	3231204e 	andi	s1,s1,0x204e
    4af0:	78010038 	0x78010038
    4af4:	5f4f495f 	0x5f4f495f
    4af8:	4947414d 	0x4947414d
    4afc:	78302043 	0x78302043
    4b00:	44414246 	0x44414246
    4b04:	30303030 	andi	s0,at,0x3030
    4b08:	5f790100 	0x5f790100
    4b0c:	5f444c4f 	0x5f444c4f
    4b10:	49445453 	0x49445453
    4b14:	414d5f4f 	0x414d5f4f
    4b18:	20434947 	addi	v1,v0,18759
    4b1c:	41467830 	0x41467830
    4b20:	30304342 	andi	s0,at,0x4342
    4b24:	01003030 	0x1003030
    4b28:	4f495f7a 	c3	0x1495f7a
    4b2c:	47414d5f 	c1	0x1414d5f
    4b30:	4d5f4349 	0x4d5f4349
    4b34:	204b5341 	addi	t3,v0,21313
    4b38:	46467830 	c1	0x467830
    4b3c:	30304646 	andi	s0,at,0x4646
    4b40:	01003030 	0x1003030
    4b44:	4f495f7b 	c3	0x1495f7b
    4b48:	4553555f 	0x4553555f
    4b4c:	55425f52 	0x55425f52
    4b50:	00312046 	0x312046
    4b54:	495f7c01 	0x495f7c01
    4b58:	4e555f4f 	c3	0x555f4f
    4b5c:	46465542 	c1	0x465542
    4b60:	44455245 	0x44455245
    4b64:	01003220 	0x1003220
    4b68:	4f495f7d 	c3	0x1495f7d
    4b6c:	5f4f4e5f 	0x5f4f4e5f
    4b70:	44414552 	0x44414552
    4b74:	00342053 	0x342053
    4b78:	495f7e01 	0x495f7e01
    4b7c:	4f4e5f4f 	c3	0x14e5f4f
    4b80:	4952575f 	0x4952575f
    4b84:	20534554 	addi	s3,v0,17748
    4b88:	7f010038 	0x7f010038
    4b8c:	5f4f495f 	0x5f4f495f
    4b90:	5f464f45 	0x5f464f45
    4b94:	4e454553 	c3	0x454553
    4b98:	31783020 	andi	t8,t3,0x3020
    4b9c:	80010030 	lb	at,48(zero)
    4ba0:	4f495f01 	c3	0x1495f01
    4ba4:	5252455f 	0x5252455f
    4ba8:	4545535f 	0x4545535f
    4bac:	7830204e 	0x7830204e
    4bb0:	01003032 	0x1003032
    4bb4:	495f0181 	0x495f0181
    4bb8:	45445f4f 	0x45445f4f
    4bbc:	4554454c 	0x4554454c
    4bc0:	4e4f445f 	c3	0x4f445f
    4bc4:	4c435f54 	0x4c435f54
    4bc8:	2045534f 	addi	a1,v0,21327
    4bcc:	30347830 	andi	s4,at,0x7830
    4bd0:	01820100 	0x1820100
    4bd4:	5f4f495f 	0x5f4f495f
    4bd8:	4b4e494c 	c2	0x14e494c
    4bdc:	30204445 	andi	zero,at,0x4445
    4be0:	00303878 	0x303878
    4be4:	5f018301 	0x5f018301
    4be8:	495f4f49 	0x495f4f49
    4bec:	41425f4e 	0x41425f4e
    4bf0:	50554b43 	0x50554b43
    4bf4:	31783020 	andi	t8,t3,0x3020
    4bf8:	01003030 	0x1003030
    4bfc:	495f0184 	0x495f0184
    4c00:	494c5f4f 	0x494c5f4f
    4c04:	425f454e 	c0	0x5f454e
    4c08:	30204655 	andi	zero,at,0x4655
    4c0c:	30303278 	andi	s0,at,0x3278
    4c10:	01850100 	0x1850100
    4c14:	5f4f495f 	0x5f4f495f
    4c18:	44454954 	0x44454954
    4c1c:	5455505f 	0x5455505f
    4c20:	5445475f 	0x5445475f
    4c24:	34783020 	ori	t8,v1,0x3020
    4c28:	01003030 	0x1003030
    4c2c:	495f0186 	0x495f0186
    4c30:	55435f4f 	0x55435f4f
    4c34:	4e455252 	c3	0x455252
    4c38:	5f594c54 	0x5f594c54
    4c3c:	54545550 	0x54545550
    4c40:	20474e49 	addi	a3,v0,20041
    4c44:	30387830 	andi	t8,at,0x7830
    4c48:	87010030 	lh	at,48(t8)
    4c4c:	4f495f01 	c3	0x1495f01
    4c50:	5f53495f 	0x5f53495f
    4c54:	45505041 	0x45505041
    4c58:	4e49444e 	c3	0x49444e
    4c5c:	78302047 	0x78302047
    4c60:	30303031 	andi	s0,at,0x3031
    4c64:	01880100 	0x1880100
    4c68:	5f4f495f 	0x5f4f495f
    4c6c:	465f5349 	c1	0x5f5349
    4c70:	42454c49 	c0	0x454c49
    4c74:	30204655 	andi	zero,at,0x4655
    4c78:	30303278 	andi	s0,at,0x3278
    4c7c:	89010030 	lwl	at,48(t0)
    4c80:	4f495f01 	c3	0x1495f01
    4c84:	4441425f 	0x4441425f
    4c88:	4545535f 	0x4545535f
    4c8c:	7830204e 	0x7830204e
    4c90:	30303034 	andi	s0,at,0x3034
    4c94:	018a0100 	0x18a0100
    4c98:	5f4f495f 	0x5f4f495f
    4c9c:	52455355 	0x52455355
    4ca0:	434f4c5f 	c0	0x14f4c5f
    4ca4:	7830204b 	0x7830204b
    4ca8:	30303038 	andi	s0,at,0x3038
    4cac:	018c0100 	0x18c0100
    4cb0:	5f4f495f 	0x5f4f495f
    4cb4:	47414c46 	c1	0x1414c46
    4cb8:	4d5f3253 	0x4d5f3253
    4cbc:	2050414d 	addi	s0,v0,16717
    4cc0:	8d010031 	lw	at,49(t0)
    4cc4:	4f495f01 	c3	0x1495f01
    4cc8:	414c465f 	0x414c465f
    4ccc:	5f325347 	0x5f325347
    4cd0:	43544f4e 	c0	0x1544f4e
    4cd4:	45434e41 	0x45434e41
    4cd8:	0032204c 	syscall	0xc881
    4cdc:	5f019101 	0x5f019101
    4ce0:	465f4f49 	c1	0x5f4f49
    4ce4:	5347414c 	0x5347414c
    4ce8:	53555f32 	0x53555f32
    4cec:	575f5245 	0x575f5245
    4cf0:	20465542 	addi	a2,v0,21826
    4cf4:	97010038 	lhu	at,56(t8)
    4cf8:	4f495f01 	c3	0x1495f01
    4cfc:	494b535f 	0x494b535f
    4d00:	20535750 	addi	s3,v0,22352
    4d04:	01003130 	0x1003130
    4d08:	495f0198 	0x495f0198
    4d0c:	454c5f4f 	0x454c5f4f
    4d10:	30205446 	andi	zero,at,0x5446
    4d14:	99010032 	lwr	at,50(t0)
    4d18:	4f495f01 	c3	0x1495f01
    4d1c:	4749525f 	c1	0x149525f
    4d20:	30205448 	andi	zero,at,0x5448
    4d24:	9a010034 	lwr	at,52(s0)
    4d28:	4f495f01 	c3	0x1495f01
    4d2c:	544e495f 	0x544e495f
    4d30:	414e5245 	0x414e5245
    4d34:	3130204c 	andi	s0,t1,0x204c
    4d38:	9b010030 	lwr	at,48(t8)
    4d3c:	4f495f01 	c3	0x1495f01
    4d40:	4345445f 	c0	0x145445f
    4d44:	30323020 	andi	s2,at,0x3020
    4d48:	019c0100 	0x19c0100
    4d4c:	5f4f495f 	0x5f4f495f
    4d50:	2054434f 	addi	s4,v0,17231
    4d54:	00303430 	0x303430
    4d58:	5f019d01 	0x5f019d01
    4d5c:	485f4f49 	0x485f4f49
    4d60:	30205845 	andi	zero,at,0x5845
    4d64:	00303031 	0x303031
    4d68:	5f019e01 	0x5f019e01
    4d6c:	535f4f49 	0x535f4f49
    4d70:	42574f48 	c0	0x574f48
    4d74:	20455341 	addi	a1,v0,21313
    4d78:	30303230 	andi	s0,at,0x3230
    4d7c:	019f0100 	0x19f0100
    4d80:	5f4f495f 	0x5f4f495f
    4d84:	574f4853 	0x574f4853
    4d88:	4e494f50 	c3	0x494f50
    4d8c:	34302054 	ori	s0,at,0x2054
    4d90:	01003030 	0x1003030
    4d94:	495f01a0 	0x495f01a0
    4d98:	50555f4f 	0x50555f4f
    4d9c:	43524550 	c0	0x1524550
    4da0:	20455341 	addi	a1,v0,21313
    4da4:	30303130 	andi	s0,at,0x3130
    4da8:	a1010030 	sb	at,48(t0)
    4dac:	4f495f01 	c3	0x1495f01
    4db0:	4f48535f 	c3	0x148535f
    4db4:	534f5057 	0x534f5057
    4db8:	30323020 	andi	s2,at,0x3020
    4dbc:	01003030 	0x1003030
    4dc0:	495f01a2 	0x495f01a2
    4dc4:	43535f4f 	c0	0x1535f4f
    4dc8:	544e4549 	0x544e4549
    4dcc:	43494649 	c0	0x1494649
    4dd0:	30343020 	andi	s4,at,0x3020
    4dd4:	01003030 	0x1003030
    4dd8:	495f01a3 	0x495f01a3
    4ddc:	49465f4f 	0x49465f4f
    4de0:	20444558 	addi	a0,v0,17752
    4de4:	30303130 	andi	s0,at,0x3130
    4de8:	01003030 	0x1003030
    4dec:	495f01a4 	0x495f01a4
    4df0:	4e555f4f 	c3	0x555f4f
    4df4:	55425449 	0x55425449
    4df8:	32302046 	andi	s0,s1,0x2046
    4dfc:	30303030 	andi	s0,at,0x3030
    4e00:	01a50100 	0x1a50100
    4e04:	5f4f495f 	0x5f4f495f
    4e08:	49445453 	0x49445453
    4e0c:	3430204f 	ori	s0,at,0x204f
    4e10:	30303030 	andi	s0,at,0x3030
    4e14:	01a60100 	0x1a60100
    4e18:	5f4f495f 	0x5f4f495f
    4e1c:	544e4f44 	0x544e4f44
    4e20:	4f4c435f 	c3	0x14c435f
    4e24:	30204553 	andi	zero,at,0x4553
    4e28:	30303031 	andi	s0,at,0x3031
    4e2c:	01003030 	0x1003030
    4e30:	495f01a7 	0x495f01a7
    4e34:	4f425f4f 	c3	0x1425f4f
    4e38:	4c414c4f 	0x4c414c4f
    4e3c:	20414850 	addi	at,v0,18512
    4e40:	30303230 	andi	s0,at,0x3230
    4e44:	00303030 	0x303030
    4e48:	5f029101 	0x5f029101
    4e4c:	665f4f49 	0x665f4f49
    4e50:	5f656c69 	0x5f656c69
    4e54:	67616c66 	0x67616c66
    4e58:	665f2073 	0x665f2073
    4e5c:	7367616c 	0x7367616c
    4e60:	02ae0100 	0x2ae0100
    4e64:	41485f5f 	0x41485f5f
    4e68:	435f4556 	c0	0x15f4556
    4e6c:	4d554c4f 	0x4d554c4f
    4e70:	0100204e 	0x100204e
    4e74:	495f02de 	0x495f02de
    4e78:	74735f4f 	jalx	1cd7d3c <foobar+0x1cd7af0>
    4e7c:	206e6964 	addi	t6,v1,26980
    4e80:	495f2828 	0x495f2828
    4e84:	49465f4f 	0x49465f4f
    4e88:	292a454c 	slti	t2,t1,17740
    4e8c:	495f2628 	0x495f2628
    4e90:	5f325f4f 	0x5f325f4f
    4e94:	74735f31 	jalx	1cd7cc4 <foobar+0x1cd7a78>
    4e98:	5f6e6964 	0x5f6e6964
    4e9c:	01002929 	0x1002929
    4ea0:	495f02df 	0x495f02df
    4ea4:	74735f4f 	jalx	1cd7d3c <foobar+0x1cd7af0>
    4ea8:	74756f64 	jalx	1d5bd90 <foobar+0x1d5bb44>
    4eac:	5f282820 	0x5f282820
    4eb0:	465f4f49 	c1	0x5f4f49
    4eb4:	2a454c49 	slti	a1,s2,19529
    4eb8:	5f262829 	0x5f262829
    4ebc:	325f4f49 	andi	ra,s2,0x4f49
    4ec0:	735f315f 	0x735f315f
    4ec4:	756f6474 	jalx	5bd91d0 <foobar+0x5bd8f84>
    4ec8:	29295f74 	slti	t1,t1,24436
    4ecc:	02e00100 	0x2e00100
    4ed0:	5f4f495f 	0x5f4f495f
    4ed4:	65647473 	0x65647473
    4ed8:	28207272 	slti	zero,at,29298
    4edc:	4f495f28 	c3	0x1495f28
    4ee0:	4c49465f 	0x4c49465f
    4ee4:	28292a45 	slti	t1,at,10821
    4ee8:	4f495f26 	c3	0x1495f26
    4eec:	315f325f 	andi	ra,t2,0x325f
    4ef0:	6474735f 	0x6474735f
    4ef4:	5f727265 	0x5f727265
    4ef8:	01002929 	0x1002929
    4efc:	495f03aa 	0x495f03aa
    4f00:	45425f4f 	0x45425f4f
    4f04:	70786528 	0x70786528
    4f08:	65722c72 	0x65722c72
    4f0c:	5f202973 	0x5f202973
    4f10:	6975625f 	0x6975625f
    4f14:	6e69746c 	0x6e69746c
    4f18:	7078655f 	0x7078655f
    4f1c:	20746365 	addi	s4,v1,25445
    4f20:	78652828 	0x78652828
    4f24:	2c297270 	sltiu	t1,at,29296
    4f28:	73657220 	0x73657220
    4f2c:	af010029 	sw	at,41(t8)
    4f30:	4f495f03 	c3	0x1495f03
    4f34:	7465675f 	jalx	1959d7c <foobar+0x1959b30>
    4f38:	6e755f63 	0x6e755f63
    4f3c:	6b636f6c 	0x6b636f6c
    4f40:	5f286465 	0x5f286465
    4f44:	20297066 	addi	t1,at,28774
    4f48:	4f495f28 	c3	0x1495f28
    4f4c:	2045425f 	addi	a1,v0,16991
    4f50:	665f2828 	0x665f2828
    4f54:	3e2d2970 	0x3e2d2970
    4f58:	5f4f495f 	0x5f4f495f
    4f5c:	64616572 	0x64616572
    4f60:	7274705f 	0x7274705f
    4f64:	203d3e20 	addi	sp,at,15904
    4f68:	70665f28 	0x70665f28
    4f6c:	5f3e2d29 	0x5f3e2d29
    4f70:	725f4f49 	0x725f4f49
    4f74:	5f646165 	0x5f646165
    4f78:	2c646e65 	sltiu	a0,v1,28261
    4f7c:	20293020 	addi	t1,at,12320
    4f80:	5f5f203f 	0x5f5f203f
    4f84:	6f6c6675 	0x6f6c6675
    4f88:	5f282077 	0x5f282077
    4f8c:	20297066 	addi	t1,at,28774
    4f90:	282a203a 	slti	t2,at,8250
    4f94:	69736e75 	0x69736e75
    4f98:	64656e67 	0x64656e67
    4f9c:	61686320 	0x61686320
    4fa0:	292a2072 	slti	t2,t1,8306
    4fa4:	665f2820 	0x665f2820
    4fa8:	3e2d2970 	0x3e2d2970
    4fac:	5f4f495f 	0x5f4f495f
    4fb0:	64616572 	0x64616572
    4fb4:	7274705f 	0x7274705f
    4fb8:	00292b2b 	0x292b2b
    4fbc:	5f03b201 	0x5f03b201
    4fc0:	705f4f49 	0x705f4f49
    4fc4:	636b6565 	0x636b6565
    4fc8:	6c6e755f 	0x6c6e755f
    4fcc:	656b636f 	0x656b636f
    4fd0:	665f2864 	0x665f2864
    4fd4:	28202970 	slti	zero,at,10608
    4fd8:	5f4f495f 	0x5f4f495f
    4fdc:	28204542 	slti	zero,at,17730
    4fe0:	70665f28 	0x70665f28
    4fe4:	5f3e2d29 	0x5f3e2d29
    4fe8:	725f4f49 	0x725f4f49
    4fec:	5f646165 	0x5f646165
    4ff0:	20727470 	addi	s2,v1,29808
    4ff4:	28203d3e 	slti	zero,at,15678
    4ff8:	2970665f 	slti	s0,t3,26207
    4ffc:	495f3e2d 	0x495f3e2d
    5000:	65725f4f 	0x65725f4f
    5004:	655f6461 	0x655f6461
    5008:	202c646e 	addi	t4,at,25710
    500c:	26202930 	addiu	zero,s1,10544
    5010:	5f5f2026 	0x5f5f2026
    5014:	65646e75 	0x65646e75
    5018:	6f6c6672 	0x6f6c6672
    501c:	5f282077 	0x5f282077
    5020:	20297066 	addi	t1,at,28774
    5024:	45203d3d 	0x45203d3d
    5028:	3f20464f 	0x3f20464f
    502c:	464f4520 	c1	0x4f4520
    5030:	2a203a20 	slti	zero,s1,14880
    5034:	736e7528 	0x736e7528
    5038:	656e6769 	0x656e6769
    503c:	68632064 	0x68632064
    5040:	2a207261 	slti	zero,s1,29281
    5044:	5f282029 	0x5f282029
    5048:	2d297066 	sltiu	t1,t1,28774
    504c:	4f495f3e 	c3	0x1495f3e
    5050:	6165725f 	0x6165725f
    5054:	74705f64 	jalx	1c17d90 <foobar+0x1c17b44>
    5058:	01002972 	0x1002972
    505c:	495f03b6 	0x495f03b6
    5060:	75705f4f 	jalx	5c17d3c <foobar+0x5c17af0>
    5064:	755f6374 	jalx	57d8dd0 <foobar+0x57d8b84>
    5068:	636f6c6e 	0x636f6c6e
    506c:	2864656b 	slti	a0,v1,25963
    5070:	2c68635f 	sltiu	t0,v1,25439
    5074:	2970665f 	slti	s0,t3,26207
    5078:	495f2820 	0x495f2820
    507c:	45425f4f 	0x45425f4f
    5080:	5f282820 	0x5f282820
    5084:	2d297066 	sltiu	t1,t1,28774
    5088:	4f495f3e 	c3	0x1495f3e
    508c:	6972775f 	0x6972775f
    5090:	705f6574 	0x705f6574
    5094:	3e207274 	0x3e207274
    5098:	5f28203d 	0x5f28203d
    509c:	2d297066 	sltiu	t1,t1,28774
    50a0:	4f495f3e 	c3	0x1495f3e
    50a4:	6972775f 	0x6972775f
    50a8:	655f6574 	0x655f6574
    50ac:	202c646e 	addi	t4,at,25710
    50b0:	3f202930 	0x3f202930
    50b4:	6f5f5f20 	0x6f5f5f20
    50b8:	66726576 	0x66726576
    50bc:	20776f6c 	addi	s7,v1,28524
    50c0:	70665f28 	0x70665f28
    50c4:	7528202c 	jalx	4a080b0 <foobar+0x4a07e64>
    50c8:	6769736e 	0x6769736e
    50cc:	2064656e 	addi	a0,v1,25966
    50d0:	72616863 	0x72616863
    50d4:	5f282029 	0x5f282029
    50d8:	29296863 	slti	t1,t1,26723
    50dc:	28203a20 	slti	zero,at,14880
    50e0:	69736e75 	0x69736e75
    50e4:	64656e67 	0x64656e67
    50e8:	61686320 	0x61686320
    50ec:	28202972 	slti	zero,at,10610
    50f0:	665f282a 	0x665f282a
    50f4:	3e2d2970 	0x3e2d2970
    50f8:	5f4f495f 	0x5f4f495f
    50fc:	74697277 	jalx	1a5c9dc <foobar+0x1a5c790>
    5100:	74705f65 	jalx	1c17d94 <foobar+0x1c17b48>
    5104:	202b2b72 	addi	t3,at,11122
    5108:	5f28203d 	0x5f28203d
    510c:	29296863 	slti	t1,t1,26723
    5110:	c9010029 	lwc2	$1,41(t0)
    5114:	4f495f03 	c3	0x1495f03
    5118:	6f65665f 	0x6f65665f
    511c:	6e755f66 	0x6e755f66
    5120:	6b636f6c 	0x6b636f6c
    5124:	5f286465 	0x5f286465
    5128:	2970665f 	slti	s0,t3,26207
    512c:	28282820 	slti	t0,at,10272
    5130:	70665f5f 	0x70665f5f
    5134:	5f3e2d29 	0x5f3e2d29
    5138:	67616c66 	0x67616c66
    513c:	20262073 	addi	a2,at,8307
    5140:	5f4f495f 	0x5f4f495f
    5144:	5f464f45 	0x5f464f45
    5148:	4e454553 	c3	0x454553
    514c:	3d212029 	0x3d212029
    5150:	00293020 	add	a2,at,t1
    5154:	5f03ca01 	0x5f03ca01
    5158:	665f4f49 	0x665f4f49
    515c:	6f727265 	0x6f727265
    5160:	6e755f72 	0x6e755f72
    5164:	6b636f6c 	0x6b636f6c
    5168:	5f286465 	0x5f286465
    516c:	2970665f 	slti	s0,t3,26207
    5170:	28282820 	slti	t0,at,10272
    5174:	70665f5f 	0x70665f5f
    5178:	5f3e2d29 	0x5f3e2d29
    517c:	67616c66 	0x67616c66
    5180:	20262073 	addi	a2,at,8307
    5184:	5f4f495f 	0x5f4f495f
    5188:	5f525245 	0x5f525245
    518c:	4e454553 	c3	0x454553
    5190:	3d212029 	0x3d212029
    5194:	00293020 	add	a2,at,t1
    5198:	5f03d401 	0x5f03d401
    519c:	505f4f49 	0x505f4f49
    51a0:	49444e45 	0x49444e45
    51a4:	4f5f474e 	c3	0x15f474e
    51a8:	55505455 	0x55505455
    51ac:	4f435f54 	c3	0x1435f54
    51b0:	28544e55 	slti	s4,v0,20053
    51b4:	2970665f 	slti	s0,t3,26207
    51b8:	5f282820 	0x5f282820
    51bc:	2d297066 	sltiu	t1,t1,28774
    51c0:	4f495f3e 	c3	0x1495f3e
    51c4:	6972775f 	0x6972775f
    51c8:	705f6574 	0x705f6574
    51cc:	2d207274 	sltiu	zero,t1,29300
    51d0:	665f2820 	0x665f2820
    51d4:	3e2d2970 	0x3e2d2970
    51d8:	5f4f495f 	0x5f4f495f
    51dc:	74697277 	jalx	1a5c9dc <foobar+0x1a5c790>
    51e0:	61625f65 	0x61625f65
    51e4:	00296573 	0x296573
    51e8:	5f03e201 	0x5f03e201
    51ec:	705f4f49 	0x705f4f49
    51f0:	636b6565 	0x636b6565
    51f4:	70665f28 	0x70665f28
    51f8:	495f2029 	0x495f2029
    51fc:	65705f4f 	0x65705f4f
    5200:	5f636b65 	0x5f636b65
    5204:	6f6c6e75 	0x6f6c6e75
    5208:	64656b63 	0x64656b63
    520c:	665f2820 	0x665f2820
    5210:	01002970 	0x1002970
    5214:	495f03e3 	0x495f03e3
    5218:	6c665f4f 	0x6c665f4f
    521c:	666b636f 	0x666b636f
    5220:	28656c69 	slti	a1,v1,27753
    5224:	2970665f 	slti	s0,t3,26207
    5228:	e4010020 	swc1	$f1,32(zero)
    522c:	4f495f03 	c3	0x1495f03
    5230:	6e75665f 	0x6e75665f
    5234:	6b636f6c 	0x6b636f6c
    5238:	656c6966 	0x656c6966
    523c:	70665f28 	0x70665f28
    5240:	01002029 	0x1002029
    5244:	495f03e5 	0x495f03e5
    5248:	74665f4f 	jalx	1997d3c <foobar+0x1997af0>
    524c:	6f6c7972 	0x6f6c7972
    5250:	69666b63 	0x69666b63
    5254:	5f28656c 	0x5f28656c
    5258:	20297066 	addi	t1,at,28774
    525c:	03e60100 	0x3e60100
    5260:	5f4f495f 	0x5f4f495f
    5264:	61656c63 	0x61656c63
    5268:	5f70756e 	0x5f70756e
    526c:	69676572 	0x69676572
    5270:	735f6e6f 	0x735f6e6f
    5274:	74726174 	jalx	1c985d0 <foobar+0x1c98384>
    5278:	63665f28 	0x63665f28
    527c:	665f2c74 	0x665f2c74
    5280:	00202970 	0x202970
    5284:	5f03e701 	0x5f03e701
    5288:	635f4f49 	0x635f4f49
    528c:	6e61656c 	0x6e61656c
    5290:	725f7075 	0x725f7075
    5294:	6f696765 	0x6f696765
    5298:	6e655f6e 	0x6e655f6e
    529c:	445f2864 	0x445f2864
    52a0:	2974696f 	slti	s4,t3,26991
    52a4:	01040020 	add	zero,t0,a0
    52a8:	4f495f65 	c3	0x1495f65
    52ac:	20464246 	addi	a2,v0,16966
    52b0:	66010030 	0x66010030
    52b4:	4c4f495f 	0x4c4f495f
    52b8:	31204642 	andi	zero,t1,0x4642
    52bc:	5f670100 	0x5f670100
    52c0:	424e4f49 	c0	0x4e4f49
    52c4:	00322046 	0x322046
    52c8:	55426c01 	0x55426c01
    52cc:	5a495346 	0x5a495346
    52d0:	4f495f20 	c3	0x1495f20
    52d4:	4655425f 	c1	0x55425f
    52d8:	005a4953 	0x5a4953
    52dc:	45537901 	0x45537901
    52e0:	535f4b45 	0x535f4b45
    52e4:	30205445 	andi	zero,at,0x5445
    52e8:	537a0100 	0x537a0100
    52ec:	5f4b4545 	0x5f4b4545
    52f0:	20525543 	addi	s2,v0,21827
    52f4:	7b010031 	0x7b010031
    52f8:	4b454553 	c2	0x1454553
    52fc:	444e455f 	0x444e455f
    5300:	01003220 	0x1003220
    5304:	5f500180 	0x5f500180
    5308:	64706d74 	0x64706d74
    530c:	22207269 	addi	zero,s1,29289
    5310:	706d742f 	0x706d742f
    5314:	8d030022 	lw	v1,34(t0)
    5318:	18011f01 	0x18011f01
    531c:	6d745f4c 	0x6d745f4c
    5320:	6d616e70 	0x6d616e70
    5324:	00303220 	0x303220
    5328:	4d541901 	0x4d541901
    532c:	414d5f50 	0x414d5f50
    5330:	33322058 	andi	s2,t9,0x2058
    5334:	38323338 	xori	s2,at,0x3338
    5338:	461a0100 	add.s	$f4,$f0,$f26
    533c:	4e454c49 	c3	0x454c49
    5340:	5f454d41 	0x5f454d41
    5344:	2058414d 	addi	t8,v0,16717
    5348:	36393034 	ori	t9,s1,0x3034
    534c:	4c1d0100 	0x4c1d0100
    5350:	6574635f 	0x6574635f
    5354:	64696d72 	0x64696d72
    5358:	02003920 	0x2003920
    535c:	504f4625 	0x504f4625
    5360:	4d5f4e45 	0x4d5f4e45
    5364:	01005841 	0x1005841
    5368:	504f4626 	0x504f4626
    536c:	4d5f4e45 	0x4d5f4e45
    5370:	31205841 	andi	zero,t1,0x5841
    5374:	01040036 	0x1040036
    5378:	74730195 	jalx	1cc0654 <foobar+0x1cc0408>
    537c:	206e6964 	addi	t6,v1,26980
    5380:	69647473 	0x69647473
    5384:	9601006e 	lhu	at,110(s0)
    5388:	64747301 	0x64747301
    538c:	2074756f 	addi	s4,v1,30063
    5390:	6f647473 	0x6f647473
    5394:	01007475 	0x1007475
    5398:	74730197 	jalx	1cc065c <foobar+0x1cc0410>
    539c:	72726564 	0x72726564
    53a0:	64747320 	0x64747320
    53a4:	00727265 	0x727265
    53a8:	67048d01 	0x67048d01
    53ac:	28637465 	slti	v1,v1,29797
    53b0:	2970665f 	slti	s0,t3,26207
    53b4:	4f495f20 	c3	0x1495f20
    53b8:	7465675f 	jalx	1959d7c <foobar+0x1959b30>
    53bc:	5f282063 	0x5f282063
    53c0:	00297066 	0x297066
    53c4:	7004b701 	0x7004b701
    53c8:	28637475 	slti	v1,v1,29813
    53cc:	2c68635f 	sltiu	t0,v1,25439
    53d0:	2970665f 	slti	s0,t3,26207
    53d4:	4f495f20 	c3	0x1495f20
    53d8:	7475705f 	jalx	1d5c17c <foobar+0x1d5bf30>
    53dc:	5f282063 	0x5f282063
    53e0:	202c6863 	addi	t4,at,26723
    53e4:	2970665f 	slti	s0,t3,26207
    53e8:	06ba0300 	0x6ba0300
    53ec:	03040420 	0x3040420
    53f0:	28010909 	slti	at,zero,2313
    53f4:	4454535f 	0x4454535f
    53f8:	5f464544 	0x5f464544
    53fc:	01002048 	0x1002048
    5400:	54535f29 	0x54535f29
    5404:	46454444 	c1	0x454444
    5408:	205f485f 	addi	ra,v0,18527
    540c:	5f2b0100 	0x5f2b0100
    5410:	49534e41 	0x49534e41
    5414:	4454535f 	0x4454535f
    5418:	5f464544 	0x5f464544
    541c:	01002048 	0x1002048
    5420:	535f5f2d 	0x535f5f2d
    5424:	45444454 	0x45444454
    5428:	5f485f46 	0x5f485f46
    542c:	0100205f 	0x100205f
    5430:	505f018a 	0x505f018a
    5434:	49445254 	0x49445254
    5438:	545f4646 	0x545f4646
    543c:	8b010020 	lwl	at,32(t8)
    5440:	5f545f01 	0x5f545f01
    5444:	44525450 	0x44525450
    5448:	5f464649 	0x5f464649
    544c:	8c010020 	lw	at,32(zero)
    5450:	5f545f01 	0x5f545f01
    5454:	44525450 	0x44525450
    5458:	20464649 	addi	a2,v0,17993
    545c:	018d0100 	0x18d0100
    5460:	54505f5f 	0x54505f5f
    5464:	46494452 	c1	0x494452
    5468:	20545f46 	addi	s4,v0,24390
    546c:	018e0100 	0x18e0100
    5470:	5254505f 	0x5254505f
    5474:	46464944 	c1	0x464944
    5478:	205f545f 	addi	ra,v0,21599
    547c:	018f0100 	0x18f0100
    5480:	4453425f 	0x4453425f
    5484:	5254505f 	0x5254505f
    5488:	46464944 	c1	0x464944
    548c:	205f545f 	addi	ra,v0,21599
    5490:	01900100 	0x1900100
    5494:	695f5f5f 	0x695f5f5f
    5498:	705f746e 	0x705f746e
    549c:	69647274 	0x69647274
    54a0:	745f6666 	jalx	17d9998 <foobar+0x17d974c>
    54a4:	0020685f 	0x20685f
    54a8:	5f019101 	0x5f019101
    54ac:	5f434347 	0x5f434347
    54b0:	44525450 	0x44525450
    54b4:	5f464649 	0x5f464649
    54b8:	02002054 	0x2002054
    54bc:	5f5f01a0 	0x5f5f01a0
    54c0:	6465656e 	0x6465656e
    54c4:	7274705f 	0x7274705f
    54c8:	66666964 	0x66666964
    54cc:	0200745f 	0x200745f
    54d0:	5f5f01e9 	0x5f5f01e9
    54d4:	6465656e 	0x6465656e
    54d8:	7a69735f 	0x7a69735f
    54dc:	00745f65 	0x745f65
    54e0:	5f02d602 	0x5f02d602
    54e4:	65656e5f 	0x65656e5f
    54e8:	63775f64 	0x63775f64
    54ec:	5f726168 	0x5f726168
    54f0:	8b020074 	lwl	v0,116(t8)
    54f4:	4c554e03 	0x4c554e03
    54f8:	9001004c 	lbu	at,76(zero)
    54fc:	4c554e03 	0x4c554e03
    5500:	2828204c 	slti	t0,at,8268
    5504:	64696f76 	0x64696f76
    5508:	30292a20 	andi	t1,at,0x2a20
    550c:	96020029 	lhu	v0,41(s0)
    5510:	6e5f5f03 	0x6e5f5f03
    5514:	5f646565 	0x5f646565
    5518:	4c4c554e 	0x4c4c554e
    551c:	039b0100 	0x39b0100
    5520:	7366666f 	0x7366666f
    5524:	666f7465 	0x666f7465
    5528:	50595428 	0x50595428
    552c:	454d2c45 	0x454d2c45
    5530:	5245424d 	0x5245424d
    5534:	5f5f2029 	0x5f5f2029
    5538:	6c697562 	0x6c697562
    553c:	5f6e6974 	0x5f6e6974
    5540:	7366666f 	0x7366666f
    5544:	666f7465 	0x666f7465
    5548:	59542820 	0x59542820
    554c:	202c4550 	addi	t4,at,17744
    5550:	424d454d 	c0	0x4d454d
    5554:	00295245 	0x295245
    5558:	210a0304 	addi	t2,t0,772
    555c:	455f1c01 	0x455f1c01
    5560:	4f4e5252 	c3	0x14e5252
    5564:	3120485f 	andi	zero,t1,0x485f
    5568:	22240300 	addi	a0,s1,768
    556c:	44451702 	0x44451702
    5570:	02004d4f 	0x2004d4f
    5574:	4c494518 	0x4c494518
    5578:	00514553 	0x514553
    557c:	52451902 	0x52451902
    5580:	45474e41 	0x45474e41
    5584:	231a0300 	addi	k0,t8,768
    5588:	4c5f0201 	0x4c5f0201
    558c:	58554e49 	0x58554e49
    5590:	5252455f 	0x5252455f
    5594:	485f4f4e 	0x485f4f4e
    5598:	04030020 	0x4030020
    559c:	5f090124 	0x5f090124
    55a0:	5f4d5341 	0x5f4d5341
    55a4:	4e525245 	c3	0x525245
    55a8:	20485f4f 	addi	t0,v0,24399
    55ac:	250f0300 	addiu	t7,t0,768
    55b0:	415f0201 	0x415f0201
    55b4:	475f4d53 	c1	0x15f4d53
    55b8:	52454e45 	0x52454e45
    55bc:	455f4349 	0x455f4349
    55c0:	4f4e5252 	c3	0x14e5252
    55c4:	5341425f 	0x5341425f
    55c8:	20485f45 	addi	t0,v0,24389
    55cc:	45040100 	0x45040100
    55d0:	4d524550 	0x4d524550
    55d4:	01003120 	0x1003120
    55d8:	4f4e4505 	c3	0x14e4505
    55dc:	20544e45 	addi	s4,v0,20037
    55e0:	06010032 	bgez	s0,56ac <.debug_macinfo+0x56ac>
    55e4:	43525345 	c0	0x1525345
    55e8:	00332048 	0x332048
    55ec:	49450701 	0x49450701
    55f0:	2052544e 	addi	s2,v0,21582
    55f4:	08010034 	j	400d0 <foobar+0x3fe84>
    55f8:	204f4945 	addi	t7,v0,18757
    55fc:	09010035 	j	40400d4 <foobar+0x403fe88>
    5600:	49584e45 	0x49584e45
    5604:	0036204f 	0x36204f
    5608:	32450a01 	andi	a1,s2,0xa01
    560c:	20474942 	addi	a3,v0,18754
    5610:	0b010037 	j	c0400dc <foobar+0xc03fe90>
    5614:	454f4e45 	0x454f4e45
    5618:	20434558 	addi	v1,v0,17752
    561c:	0c010038 	jal	400e0 <foobar+0x3fe94>
    5620:	44414245 	0x44414245
    5624:	00392046 	0x392046
    5628:	43450d01 	c0	0x1450d01
    562c:	444c4948 	0x444c4948
    5630:	00303120 	0x303120
    5634:	41450e01 	0x41450e01
    5638:	4e494147 	c3	0x494147
    563c:	00313120 	0x313120
    5640:	4e450f01 	c3	0x450f01
    5644:	4d454d4f 	0x4d454d4f
    5648:	00323120 	0x323120
    564c:	41451001 	0x41451001
    5650:	53454343 	0x53454343
    5654:	00333120 	0x333120
    5658:	46451101 	c1	0x451101
    565c:	544c5541 	0x544c5541
    5660:	00343120 	0x343120
    5664:	4e451201 	c3	0x451201
    5668:	4c42544f 	0x4c42544f
    566c:	3531204b 	ori	s1,t1,0x204b
    5670:	45130100 	0x45130100
    5674:	59535542 	0x59535542
    5678:	00363120 	0x363120
    567c:	45451401 	0x45451401
    5680:	54534958 	0x54534958
    5684:	00373120 	0x373120
    5688:	58451501 	0x58451501
    568c:	20564544 	addi	s6,v0,17732
    5690:	01003831 	0x1003831
    5694:	4f4e4516 	c3	0x14e4516
    5698:	20564544 	addi	s6,v0,17732
    569c:	01003931 	0x1003931
    56a0:	4f4e4517 	c3	0x14e4517
    56a4:	52494454 	0x52494454
    56a8:	00303220 	0x303220
    56ac:	49451801 	0x49451801
    56b0:	52494453 	0x52494453
    56b4:	00313220 	0x313220
    56b8:	49451901 	0x49451901
    56bc:	4c41564e 	0x4c41564e
    56c0:	00323220 	0x323220
    56c4:	4e451a01 	c3	0x451a01
    56c8:	454c4946 	0x454c4946
    56cc:	00333220 	0x333220
    56d0:	4d451b01 	0x4d451b01
    56d4:	454c4946 	0x454c4946
    56d8:	00343220 	0x343220
    56dc:	4e451c01 	c3	0x451c01
    56e0:	5954544f 	0x5954544f
    56e4:	00353220 	0x353220
    56e8:	54451d01 	0x54451d01
    56ec:	53425458 	0x53425458
    56f0:	36322059 	ori	s2,s1,0x2059
    56f4:	451e0100 	0x451e0100
    56f8:	47494246 	c1	0x1494246
    56fc:	00373220 	0x373220
    5700:	4e451f01 	c3	0x451f01
    5704:	4350534f 	c0	0x150534f
    5708:	00383220 	0x383220
    570c:	53452001 	0x53452001
    5710:	45504950 	0x45504950
    5714:	00393220 	0x393220
    5718:	52452101 	0x52452101
    571c:	2053464f 	addi	s3,v0,17999
    5720:	01003033 	0x1003033
    5724:	4c4d4522 	0x4c4d4522
    5728:	204b4e49 	addi	t3,v0,20041
    572c:	01003133 	0x1003133
    5730:	49504523 	0x49504523
    5734:	33204550 	andi	zero,t9,0x4550
    5738:	24010032 	li	at,50
    573c:	4d4f4445 	0x4d4f4445
    5740:	00333320 	0x333320
    5744:	52452501 	0x52452501
    5748:	45474e41 	0x45474e41
    574c:	00343320 	0x343320
    5750:	45110104 	0x45110104
    5754:	534d4f4e 	0x534d4f4e
    5758:	35332047 	ori	s3,t1,0x2047
    575c:	45120100 	0x45120100
    5760:	4d524449 	0x4d524449
    5764:	00363320 	0x363320
    5768:	43451301 	c0	0x1451301
    576c:	474e5248 	c1	0x14e5248
    5770:	00373320 	0x373320
    5774:	4c451401 	0x4c451401
    5778:	59534e32 	0x59534e32
    577c:	3320434e 	andi	zero,t9,0x434e
    5780:	15010038 	bne	t0,at,5864 <.debug_macinfo+0x5864>
    5784:	48334c45 	0x48334c45
    5788:	3320544c 	andi	zero,t9,0x544c
    578c:	16010039 	bne	s0,at,5874 <.debug_macinfo+0x5874>
    5790:	52334c45 	0x52334c45
    5794:	34205453 	ori	zero,at,0x5453
    5798:	17010030 	bne	t8,at,585c <.debug_macinfo+0x585c>
    579c:	524e4c45 	0x524e4c45
    57a0:	3420474e 	ori	zero,at,0x474e
    57a4:	18010031 	0x18010031
    57a8:	414e5545 	0x414e5545
    57ac:	20484354 	addi	t0,v0,17236
    57b0:	01003234 	0x1003234
    57b4:	4f4e4519 	c3	0x14e4519
    57b8:	20495343 	addi	t1,v0,21315
    57bc:	01003334 	0x1003334
    57c0:	324c451a 	andi	t4,s2,0x451a
    57c4:	20544c48 	addi	s4,v0,19528
    57c8:	01003434 	0x1003434
    57cc:	4544451b 	0x4544451b
    57d0:	4b4c4441 	c2	0x14c4441
    57d4:	00353420 	0x353420
    57d8:	4e451c01 	c3	0x451c01
    57dc:	4b434c4f 	c2	0x1434c4f
    57e0:	00363420 	0x363420
    57e4:	42451d01 	c0	0x451d01
    57e8:	20454441 	addi	a1,v0,17473
    57ec:	01003035 	0x1003035
    57f0:	4142451e 	0x4142451e
    57f4:	35205244 	ori	zero,t1,0x5244
    57f8:	1f010031 	0x1f010031
    57fc:	55465845 	0x55465845
    5800:	35204c4c 	ori	zero,t1,0x4c4c
    5804:	20010032 	addi	at,zero,50
    5808:	414f4e45 	0x414f4e45
    580c:	35204f4e 	ori	zero,t1,0x4f4e
    5810:	21010033 	addi	at,t0,51
    5814:	44414245 	0x44414245
    5818:	20435152 	addi	v1,v0,20818
    581c:	01003435 	0x1003435
    5820:	41424522 	0x41424522
    5824:	544c5344 	0x544c5344
    5828:	00353520 	0x353520
    582c:	44452301 	0x44452301
    5830:	4c444145 	0x4c444145
    5834:	204b434f 	addi	t3,v0,17231
    5838:	01003635 	0x1003635
    583c:	46424524 	c1	0x424524
    5840:	20544e4f 	addi	s4,v0,20047
    5844:	01003935 	0x1003935
    5848:	4f4e4525 	c3	0x14e4525
    584c:	20525453 	addi	s2,v0,21587
    5850:	01003036 	0x1003036
    5854:	4f4e4526 	c3	0x14e4526
    5858:	41544144 	0x41544144
    585c:	00313620 	0x313620
    5860:	54452701 	0x54452701
    5864:	20454d49 	addi	a1,v0,19785
    5868:	01003236 	0x1003236
    586c:	4f4e4528 	c3	0x14e4528
    5870:	36205253 	ori	zero,s1,0x5253
    5874:	29010033 	slti	at,t0,51
    5878:	4e4f4e45 	c3	0x4f4e45
    587c:	36205445 	ori	zero,s1,0x5445
    5880:	2a010034 	slti	at,s0,52
    5884:	504f4e45 	0x504f4e45
    5888:	3620474b 	ori	zero,s1,0x474b
    588c:	2b010035 	slti	at,t8,53
    5890:	4d455245 	0x4d455245
    5894:	2045544f 	addi	a1,v0,21583
    5898:	01003636 	0x1003636
    589c:	4f4e452c 	c3	0x14e452c
    58a0:	4b4e494c 	c2	0x14e494c
    58a4:	00373620 	0x373620
    58a8:	41452d01 	0x41452d01
    58ac:	36205644 	ori	zero,s1,0x5644
    58b0:	2e010038 	sltiu	at,s0,56
    58b4:	4d525345 	0x4d525345
    58b8:	3620544e 	ori	zero,s1,0x544e
    58bc:	2f010039 	sltiu	at,t8,57
    58c0:	4d4f4345 	0x4d4f4345
    58c4:	3037204d 	andi	s7,at,0x204d
    58c8:	45300100 	0x45300100
    58cc:	544f5250 	0x544f5250
    58d0:	3137204f 	andi	s7,t1,0x204f
    58d4:	45310100 	0x45310100
    58d8:	44544f44 	0x44544f44
    58dc:	3720544f 	ori	zero,t9,0x544f
    58e0:	32010033 	andi	at,s0,0x33
    58e4:	4c554d45 	0x4c554d45
    58e8:	4f484954 	c3	0x1484954
    58ec:	34372050 	ori	s7,at,0x2050
    58f0:	45330100 	0x45330100
    58f4:	4d444142 	0x4d444142
    58f8:	37204753 	ori	zero,t9,0x4753
    58fc:	34010037 	li	at,0x37
    5900:	4d414e45 	0x4d414e45
    5904:	4f4f5445 	c3	0x14f5445
    5908:	474e4f4c 	c1	0x14e4f4c
    590c:	00383720 	0x383720
    5910:	4f453501 	c3	0x1453501
    5914:	46524556 	c1	0x524556
    5918:	20574f4c 	addi	s7,v0,20300
    591c:	01003937 	0x1003937
    5920:	4f4e4536 	c3	0x14e4536
    5924:	494e5554 	0x494e5554
    5928:	30382051 	andi	t8,at,0x2051
    592c:	45370100 	0x45370100
    5930:	46444142 	c1	0x444142
    5934:	31382044 	andi	t8,t1,0x2044
    5938:	45380100 	0x45380100
    593c:	434d4552 	c0	0x14d4552
    5940:	38204748 	xori	zero,at,0x4748
    5944:	39010032 	xori	at,t0,0x32
    5948:	42494c45 	c0	0x494c45
    594c:	20434341 	addi	v1,v0,17217
    5950:	01003338 	0x1003338
    5954:	494c453a 	0x494c453a
    5958:	44414242 	0x44414242
    595c:	00343820 	add	a3,at,s4
    5960:	4c453b01 	0x4c453b01
    5964:	43534249 	c0	0x1534249
    5968:	3538204e 	ori	t8,t1,0x204e
    596c:	453c0100 	0x453c0100
    5970:	4d42494c 	0x4d42494c
    5974:	38205841 	xori	zero,at,0x5841
    5978:	3d010036 	0x3d010036
    597c:	42494c45 	c0	0x494c45
    5980:	43455845 	c0	0x1455845
    5984:	00373820 	add	a3,at,s7
    5988:	49453e01 	0x49453e01
    598c:	5145534c 	0x5145534c
    5990:	00383820 	add	a3,at,t8
    5994:	4e453f01 	c3	0x453f01
    5998:	5359534f 	0x5359534f
    599c:	00393820 	add	a3,at,t9
    59a0:	4c454001 	0x4c454001
    59a4:	20504f4f 	addi	s0,v0,20303
    59a8:	01003039 	0x1003039
    59ac:	45524541 	0x45524541
    59b0:	52415453 	0x52415453
    59b4:	31392054 	andi	t9,t1,0x2054
    59b8:	45420100 	0x45420100
    59bc:	50525453 	0x50525453
    59c0:	20455049 	addi	a1,v0,20553
    59c4:	01003239 	0x1003239
    59c8:	4f4e4543 	c3	0x14e4543
    59cc:	504d4554 	0x504d4554
    59d0:	39205954 	xori	zero,t1,0x5954
    59d4:	44010033 	0x44010033
    59d8:	45535545 	0x45535545
    59dc:	39205352 	xori	zero,t1,0x5352
    59e0:	45010034 	bc1t	5ab4 <.debug_macinfo+0x5ab4>
    59e4:	544f4e45 	0x544f4e45
    59e8:	4b434f53 	c2	0x1434f53
    59ec:	00353920 	0x353920
    59f0:	44454601 	0x44454601
    59f4:	41545345 	0x41545345
    59f8:	52524444 	0x52524444
    59fc:	39205145 	xori	zero,t1,0x5145
    5a00:	47010036 	c1	0x1010036
    5a04:	47534d45 	c1	0x1534d45
    5a08:	455a4953 	0x455a4953
    5a0c:	00373920 	0x373920
    5a10:	50454801 	0x50454801
    5a14:	4f544f52 	c3	0x1544f52
    5a18:	45505954 	0x45505954
    5a1c:	00383920 	0x383920
    5a20:	4e454901 	c3	0x454901
    5a24:	4f52504f 	c3	0x152504f
    5a28:	504f4f54 	0x504f4f54
    5a2c:	39392054 	xori	t9,t1,0x2054
    5a30:	454a0100 	0x454a0100
    5a34:	544f5250 	0x544f5250
    5a38:	534f4e4f 	0x534f4e4f
    5a3c:	4f505055 	c3	0x1505055
    5a40:	31205452 	andi	zero,t1,0x5452
    5a44:	01003032 	0x1003032
    5a48:	4f53454b 	c3	0x153454b
    5a4c:	4e544b43 	c3	0x544b43
    5a50:	5055534f 	0x5055534f
    5a54:	54524f50 	0x54524f50
    5a58:	31323120 	andi	s2,t1,0x3120
    5a5c:	454c0100 	0x454c0100
    5a60:	4f4e504f 	c3	0x14e504f
    5a64:	50555354 	0x50555354
    5a68:	32312050 	andi	s1,s1,0x2050
    5a6c:	4d010032 	bc3t	5b38 <.debug_macinfo+0x5b38>
    5a70:	4e465045 	c3	0x465045
    5a74:	5055534f 	0x5055534f
    5a78:	54524f50 	0x54524f50
    5a7c:	33323120 	andi	s2,t9,0x3120
    5a80:	454e0100 	0x454e0100
    5a84:	4f4e4641 	c3	0x14e4641
    5a88:	50505553 	0x50505553
    5a8c:	2054524f 	addi	s4,v0,21071
    5a90:	00343231 	0x343231
    5a94:	41454f01 	0x41454f01
    5a98:	49524444 	0x49524444
    5a9c:	4553554e 	0x4553554e
    5aa0:	35323120 	ori	s2,t1,0x3120
    5aa4:	45500100 	0x45500100
    5aa8:	52444441 	0x52444441
    5aac:	41544f4e 	0x41544f4e
    5ab0:	4c494156 	0x4c494156
    5ab4:	36323120 	ori	s2,s1,0x3120
    5ab8:	45510100 	0x45510100
    5abc:	4454454e 	0x4454454e
    5ac0:	204e574f 	addi	t6,v0,22351
    5ac4:	00373231 	0x373231
    5ac8:	4e455201 	c3	0x455201
    5acc:	4e555445 	c3	0x555445
    5ad0:	43414552 	c0	0x1414552
    5ad4:	32312048 	andi	s1,s1,0x2048
    5ad8:	53010038 	0x53010038
    5adc:	54454e45 	0x54454e45
    5ae0:	45534552 	0x45534552
    5ae4:	32312054 	andi	s1,s1,0x2054
    5ae8:	54010039 	0x54010039
    5aec:	4e4f4345 	c3	0x4f4345
    5af0:	4f42414e 	c3	0x142414e
    5af4:	44455452 	0x44455452
    5af8:	30333120 	andi	s3,at,0x3120
    5afc:	45550100 	0x45550100
    5b00:	4e4e4f43 	c3	0x4e4f43
    5b04:	45534552 	0x45534552
    5b08:	33312054 	andi	s1,t9,0x2054
    5b0c:	56010031 	0x56010031
    5b10:	424f4e45 	c0	0x4f4e45
    5b14:	20534655 	addi	s3,v0,18005
    5b18:	00323331 	0x323331
    5b1c:	49455701 	0x49455701
    5b20:	4e4f4353 	c3	0x4f4353
    5b24:	3331204e 	andi	s1,t9,0x204e
    5b28:	58010033 	0x58010033
    5b2c:	544f4e45 	0x544f4e45
    5b30:	4e4e4f43 	c3	0x4e4f43
    5b34:	34333120 	ori	s3,at,0x3120
    5b38:	45590100 	0x45590100
    5b3c:	454c4355 	0x454c4355
    5b40:	31204e41 	andi	zero,t1,0x4e41
    5b44:	01003533 	0x1003533
    5b48:	4f4e455a 	c3	0x14e455a
    5b4c:	4d414e54 	0x4d414e54
    5b50:	37333120 	ori	s3,t9,0x3120
    5b54:	455b0100 	0x455b0100
    5b58:	4156414e 	0x4156414e
    5b5c:	31204c49 	andi	zero,t1,0x4c49
    5b60:	01003833 	0x1003833
    5b64:	5349455c 	0x5349455c
    5b68:	204d414e 	addi	t5,v0,16718
    5b6c:	00393331 	0x393331
    5b70:	52455d01 	0x52455d01
    5b74:	544f4d45 	0x544f4d45
    5b78:	204f4945 	addi	t7,v0,18757
    5b7c:	00303431 	0x303431
    5b80:	49455e01 	0x49455e01
    5b84:	2054494e 	addi	s4,v0,18766
    5b88:	00313431 	0x313431
    5b8c:	52455f01 	0x52455f01
    5b90:	45444d45 	0x45444d45
    5b94:	34312056 	ori	s1,at,0x2056
    5b98:	60010032 	0x60010032
    5b9c:	55485345 	0x55485345
    5ba0:	574f4454 	0x574f4454
    5ba4:	3431204e 	ori	s1,at,0x204e
    5ba8:	61010033 	0x61010033
    5bac:	4f4f5445 	c3	0x14f5445
    5bb0:	594e414d 	0x594e414d
    5bb4:	53464552 	0x53464552
    5bb8:	34343120 	ori	s4,at,0x3120
    5bbc:	45620100 	0x45620100
    5bc0:	454d4954 	0x454d4954
    5bc4:	54554f44 	0x54554f44
    5bc8:	35343120 	ori	s4,t1,0x3120
    5bcc:	45630100 	0x45630100
    5bd0:	4e4e4f43 	c3	0x4e4f43
    5bd4:	55464552 	0x55464552
    5bd8:	20444553 	addi	a0,v0,17747
    5bdc:	00363431 	0x363431
    5be0:	48456401 	0x48456401
    5be4:	4454534f 	0x4454534f
    5be8:	204e574f 	addi	t6,v0,22351
    5bec:	00373431 	0x373431
    5bf0:	48456501 	0x48456501
    5bf4:	5554534f 	0x5554534f
    5bf8:	4145524e 	0x4145524e
    5bfc:	31204843 	andi	zero,t1,0x4843
    5c00:	01003834 	0x1003834
    5c04:	4f574566 	c3	0x1574566
    5c08:	42444c55 	c0	0x444c55
    5c0c:	4b434f4c 	c2	0x1434f4c
    5c10:	47414520 	c1	0x1414520
    5c14:	004e4941 	0x4e4941
    5c18:	41456701 	0x41456701
    5c1c:	4145524c 	0x4145524c
    5c20:	31205944 	andi	zero,t1,0x5944
    5c24:	01003934 	0x1003934
    5c28:	4e494568 	c3	0x494568
    5c2c:	474f5250 	c1	0x14f5250
    5c30:	53534552 	0x53534552
    5c34:	30353120 	andi	s5,at,0x3120
    5c38:	45690100 	0x45690100
    5c3c:	4c415453 	0x4c415453
    5c40:	35312045 	ori	s1,t1,0x2045
    5c44:	6a010031 	0x6a010031
    5c48:	4e414345 	c3	0x414345
    5c4c:	454c4543 	0x454c4543
    5c50:	35312044 	ori	s1,t1,0x2044
    5c54:	6f010038 	0x6f010038
    5c58:	4d4f4e45 	0x4d4f4e45
    5c5c:	55494445 	0x55494445
    5c60:	3531204d 	ori	s1,t1,0x204d
    5c64:	70010039 	0x70010039
    5c68:	44454d45 	0x44454d45
    5c6c:	544d5549 	0x544d5549
    5c70:	20455059 	addi	a1,v0,20569
    5c74:	00303631 	0x303631
    5c78:	4e457101 	c3	0x457101
    5c7c:	59454b4f 	0x59454b4f
    5c80:	31363120 	andi	s6,t1,0x3120
    5c84:	45720100 	0x45720100
    5c88:	4559454b 	0x4559454b
    5c8c:	52495058 	0x52495058
    5c90:	31204445 	andi	zero,t1,0x4445
    5c94:	01003236 	0x1003236
    5c98:	454b4573 	0x454b4573
    5c9c:	56455259 	0x56455259
    5ca0:	44454b4f 	0x44454b4f
    5ca4:	33363120 	andi	s6,t9,0x3120
    5ca8:	45740100 	0x45740100
    5cac:	5259454b 	0x5259454b
    5cb0:	43454a45 	c0	0x1454a45
    5cb4:	20444554 	addi	a0,v0,17748
    5cb8:	00343631 	0x343631
    5cbc:	4f457701 	c3	0x1457701
    5cc0:	52454e57 	0x52454e57
    5cc4:	44414544 	0x44414544
    5cc8:	35363120 	ori	s6,t1,0x3120
    5ccc:	45780100 	0x45780100
    5cd0:	52544f4e 	0x52544f4e
    5cd4:	564f4345 	0x564f4345
    5cd8:	42415245 	c0	0x415245
    5cdc:	3120454c 	andi	zero,t1,0x454c
    5ce0:	01003636 	0x1003636
    5ce4:	4652457a 	c1	0x52457a
    5ce8:	4c4c494b 	0x4c4c494b
    5cec:	37363120 	ori	s6,t9,0x3120
    5cf0:	457c0100 	0x457c0100
    5cf4:	4f555144 	c3	0x1555144
    5cf8:	31312054 	andi	s1,t1,0x2054
    5cfc:	04003333 	bltz	zero,129cc <foobar+0x12780>
    5d00:	451d0104 	0x451d0104
    5d04:	53544f4e 	0x53544f4e
    5d08:	45205055 	0x45205055
    5d0c:	4f4e504f 	c3	0x14e504f
    5d10:	50555354 	0x50555354
    5d14:	2f010050 	sltiu	at,t8,80
    5d18:	6e727265 	0x6e727265
    5d1c:	2a28206f 	slti	t0,s1,8303
    5d20:	72655f5f 	0x72655f5f
    5d24:	5f6f6e72 	0x5f6f6e72
    5d28:	61636f6c 	0x61636f6c
    5d2c:	6e6f6974 	0x6e6f6974
    5d30:	29292820 	slti	t1,t1,10272
    5d34:	25020400 	addiu	v0,t0,1024
    5d38:	656e5f5f 	0x656e5f5f
    5d3c:	455f6465 	0x455f6465
    5d40:	6874616d 	0x6874616d
    5d44:	0b030400 	j	c0c1000 <foobar+0xc0c0db4>
    5d48:	5f080126 	0x5f080126
    5d4c:	4d415246 	0x4d415246
    5d50:	5f485f45 	0x5f485f45
    5d54:	0a030020 	j	80c0080 <foobar+0x80bfe34>
    5d58:	5f070127 	0x5f070127
    5d5c:	4843414d 	0x4843414d
    5d60:	5f454e49 	0x5f454e49
    5d64:	00205f48 	0x205f48
    5d68:	01280903 	0x1280903
    5d6c:	53415f24 	0x53415f24
    5d70:	54524553 	0x54524553
    5d74:	3120485f 	andi	zero,t1,0x485f
    5d78:	5f2a0100 	0x5f2a0100
    5d7c:	5353415f 	0x5353415f
    5d80:	5f545245 	0x5f545245
    5d84:	44494f56 	0x44494f56
    5d88:	5341435f 	0x5341435f
    5d8c:	76282054 	jalx	8a08150 <foobar+0x8a07f04>
    5d90:	2964696f 	slti	a0,t3,26991
    5d94:	5f430100 	0x5f430100
    5d98:	45535341 	0x45535341
    5d9c:	485f5452 	0x485f5452
    5da0:	4345445f 	c0	0x145445f
    5da4:	0020534c 	syscall	0x814d
    5da8:	73615b01 	0x73615b01
    5dac:	74726573 	jalx	1c995cc <foobar+0x1c99380>
    5db0:	70786528 	0x70786528
    5db4:	28202972 	slti	zero,at,10610
    5db8:	70786528 	0x70786528
    5dbc:	3f202972 	0x3f202972
    5dc0:	415f5f20 	0x415f5f20
    5dc4:	52455353 	0x52455353
    5dc8:	4f565f54 	c3	0x1565f54
    5dcc:	435f4449 	c0	0x15f4449
    5dd0:	20545341 	addi	s4,v0,21313
    5dd4:	20293028 	addi	t1,at,12328
    5dd8:	5f5f203a 	0x5f5f203a
    5ddc:	65737361 	0x65737361
    5de0:	665f7472 	0x665f7472
    5de4:	206c6961 	addi	t4,v1,26977
    5de8:	535f5f28 	0x535f5f28
    5dec:	4e495254 	c3	0x495254
    5df0:	78652847 	0x78652847
    5df4:	2c297270 	sltiu	t1,at,29296
    5df8:	465f5f20 	c1	0x5f5f20
    5dfc:	5f454c49 	0x5f454c49
    5e00:	5f202c5f 	0x5f202c5f
    5e04:	4e494c5f 	c3	0x494c5f
    5e08:	2c5f5f45 	sltiu	ra,v0,24389
    5e0c:	415f5f20 	0x415f5f20
    5e10:	52455353 	0x52455353
    5e14:	55465f54 	0x55465f54
    5e18:	4954434e 	0x4954434e
    5e1c:	29294e4f 	slti	t1,t1,20047
    5e20:	5f6d0100 	0x5f6d0100
    5e24:	5353415f 	0x5353415f
    5e28:	5f545245 	0x5f545245
    5e2c:	434e5546 	c0	0x14e5546
    5e30:	4e4f4954 	c3	0x4f4954
    5e34:	505f5f20 	0x505f5f20
    5e38:	54544552 	0x54544552
    5e3c:	55465f59 	0x55465f59
    5e40:	4954434e 	0x4954434e
    5e44:	5f5f4e4f 	0x5f5f4e4f
    5e48:	0a030400 	j	80c1000 <foobar+0x80c0db4>
    5e4c:	5f080129 	0x5f080129
    5e50:	5245504f 	0x5245504f
    5e54:	5f444e41 	0x5f444e41
    5e58:	00205f48 	0x205f48
    5e5c:	012a0a03 	0x12a0a03
    5e60:	54535f18 	0x54535f18
    5e64:	544e4944 	0x544e4944
    5e68:	3120485f 	andi	zero,t1,0x485f
    5e6c:	2b1b0300 	slti	k1,t8,768
    5e70:	425f1501 	c0	0x5f1501
    5e74:	5f535449 	0x5f535449
    5e78:	41484357 	0x41484357
    5e7c:	20485f52 	addi	t0,v0,24402
    5e80:	19010031 	0x19010031
    5e84:	43575f5f 	c0	0x1575f5f
    5e88:	5f524148 	0x5f524148
    5e8c:	2058414d 	addi	t8,v0,16717
    5e90:	43575f5f 	c0	0x1575f5f
    5e94:	5f524148 	0x5f524148
    5e98:	5f58414d 	0x5f58414d
    5e9c:	2801005f 	slti	at,zero,95
    5ea0:	43575f5f 	c0	0x1575f5f
    5ea4:	5f524148 	0x5f524148
    5ea8:	204e494d 	addi	t6,v0,18765
    5eac:	5f5f2d28 	0x5f5f2d28
    5eb0:	41484357 	0x41484357
    5eb4:	414d5f52 	0x414d5f52
    5eb8:	202d2058 	addi	t5,at,8280
    5ebc:	04002931 	bltz	zero,10384 <foobar+0x10138>
    5ec0:	01071c03 	0x1071c03
    5ec4:	575f5f13 	0x575f5f13
    5ec8:	5344524f 	0x5344524f
    5ecc:	20455a49 	addi	a1,v0,23113
    5ed0:	50494d5f 	0x50494d5f
    5ed4:	5a535f53 	0x5a535f53
    5ed8:	00525450 	0x525450
    5edc:	5f350104 	0x5f350104
    5ee0:	6e69755f 	0x6e69755f
    5ee4:	5f323374 	0x5f323374
    5ee8:	65645f74 	0x65645f74
    5eec:	656e6966 	0x656e6966
    5ef0:	01002064 	0x1002064
    5ef4:	695f5f7f 	0x695f5f7f
    5ef8:	7470746e 	jalx	1c1d1b8 <foobar+0x1c1cf6c>
    5efc:	5f745f72 	0x5f745f72
    5f00:	69666564 	0x69666564
    5f04:	2064656e 	addi	a0,v1,25966
    5f08:	01990100 	0x1990100
    5f0c:	4e495f5f 	c3	0x495f5f
    5f10:	5f343654 	0x5f343654
    5f14:	29632843 	slti	v1,t3,10307
    5f18:	23206320 	addi	zero,t9,25376
    5f1c:	4c4c2023 	0x4c4c2023
    5f20:	019a0100 	0x19a0100
    5f24:	49555f5f 	0x49555f5f
    5f28:	3436544e 	ori	s6,at,0x544e
    5f2c:	6328435f 	0x6328435f
    5f30:	20632029 	addi	v1,v1,8233
    5f34:	55202323 	0x55202323
    5f38:	01004c4c 	syscall	0x40131
    5f3c:	4e4901a0 	c3	0x4901a0
    5f40:	4d5f3854 	0x4d5f3854
    5f44:	28204e49 	slti	zero,at,20041
    5f48:	3832312d 	xori	s2,at,0x312d
    5f4c:	a1010029 	sb	at,41(t0)
    5f50:	544e4901 	0x544e4901
    5f54:	4d5f3631 	0x4d5f3631
    5f58:	28204e49 	slti	zero,at,20041
    5f5c:	3732332d 	ori	s2,t9,0x332d
    5f60:	312d3736 	andi	t5,t1,0x3736
    5f64:	a2010029 	sb	at,41(s0)
    5f68:	544e4901 	0x544e4901
    5f6c:	4d5f3233 	0x4d5f3233
    5f70:	28204e49 	slti	zero,at,20041
    5f74:	3431322d 	ori	s1,at,0x322d
    5f78:	33383437 	andi	t8,t9,0x3437
    5f7c:	2d373436 	sltiu	s7,t1,13366
    5f80:	01002931 	0x1002931
    5f84:	4e4901a3 	c3	0x4901a3
    5f88:	5f343654 	0x5f343654
    5f8c:	204e494d 	addi	t6,v0,18765
    5f90:	5f5f2d28 	0x5f5f2d28
    5f94:	36544e49 	ori	s4,s2,0x4e49
    5f98:	28435f34 	slti	v1,v0,24372
    5f9c:	33323239 	andi	s2,t9,0x3239
    5fa0:	30323733 	andi	s2,at,0x3733
    5fa4:	35383633 	ori	t8,t1,0x3633
    5fa8:	35373734 	ori	s7,t1,0x3734
    5fac:	29373038 	slti	s7,t1,12344
    5fb0:	0029312d 	0x29312d
    5fb4:	4901a501 	bc2t	fffef3bc <foobar+0xfffef170>
    5fb8:	5f38544e 	0x5f38544e
    5fbc:	2058414d 	addi	t8,v0,16717
    5fc0:	37323128 	ori	s2,t9,0x3128
    5fc4:	a6010029 	sh	at,41(s0)
    5fc8:	544e4901 	0x544e4901
    5fcc:	4d5f3631 	0x4d5f3631
    5fd0:	28205841 	slti	zero,at,22593
    5fd4:	36373233 	ori	s7,s1,0x3233
    5fd8:	01002937 	0x1002937
    5fdc:	4e4901a7 	c3	0x4901a7
    5fe0:	5f323354 	0x5f323354
    5fe4:	2058414d 	addi	t8,v0,16717
    5fe8:	34313228 	ori	s1,at,0x3228
    5fec:	33383437 	andi	t8,t9,0x3437
    5ff0:	29373436 	slti	s7,t1,13366
    5ff4:	01a80100 	0x1a80100
    5ff8:	36544e49 	ori	s4,s2,0x4e49
    5ffc:	414d5f34 	0x414d5f34
    6000:	5f282058 	0x5f282058
    6004:	544e495f 	0x544e495f
    6008:	435f3436 	c0	0x15f3436
    600c:	32323928 	andi	s2,s1,0x3928
    6010:	32373333 	andi	s7,s1,0x3333
    6014:	38363330 	xori	s6,at,0x3330
    6018:	37373435 	ori	s7,t9,0x3435
    601c:	37303835 	ori	s0,t9,0x3835
    6020:	01002929 	0x1002929
    6024:	495501ab 	0x495501ab
    6028:	5f38544e 	0x5f38544e
    602c:	2058414d 	addi	t8,v0,16717
    6030:	35353228 	ori	s5,t1,0x3228
    6034:	ac010029 	sw	at,41(zero)
    6038:	4e495501 	c3	0x495501
    603c:	5f363154 	0x5f363154
    6040:	2058414d 	addi	t8,v0,16717
    6044:	35353628 	ori	s5,t1,0x3628
    6048:	00293533 	0x293533
    604c:	5501ad01 	0x5501ad01
    6050:	33544e49 	andi	s4,k0,0x4e49
    6054:	414d5f32 	0x414d5f32
    6058:	34282058 	ori	t0,at,0x2058
    605c:	39343932 	xori	s4,t1,0x3932
    6060:	39323736 	xori	s2,t1,0x3736
    6064:	00295535 	0x295535
    6068:	5501ae01 	0x5501ae01
    606c:	36544e49 	ori	s4,s2,0x4e49
    6070:	414d5f34 	0x414d5f34
    6074:	5f282058 	0x5f282058
    6078:	4e49555f 	c3	0x49555f
    607c:	5f343654 	0x5f343654
    6080:	38312843 	xori	s1,at,0x2843
    6084:	37363434 	ori	s6,t9,0x3434
    6088:	37303434 	ori	s0,t9,0x3434
    608c:	39303733 	xori	s0,t1,0x3733
    6090:	36313535 	ori	s1,s1,0x3535
    6094:	29293531 	slti	t1,t1,13617
    6098:	01b20100 	0x1b20100
    609c:	5f544e49 	0x5f544e49
    60a0:	5341454c 	0x5341454c
    60a4:	4d5f3854 	0x4d5f3854
    60a8:	28204e49 	slti	zero,at,20041
    60ac:	3832312d 	xori	s2,at,0x312d
    60b0:	b3010029 	0xb3010029
    60b4:	544e4901 	0x544e4901
    60b8:	41454c5f 	0x41454c5f
    60bc:	36315453 	ori	s1,s1,0x5453
    60c0:	4e494d5f 	c3	0x494d5f
    60c4:	332d2820 	andi	t5,t9,0x2820
    60c8:	37363732 	ori	s6,t9,0x3732
    60cc:	0029312d 	0x29312d
    60d0:	4901b401 	bc2t	ffff30d8 <foobar+0xffff2e8c>
    60d4:	4c5f544e 	0x4c5f544e
    60d8:	54534145 	0x54534145
    60dc:	4d5f3233 	0x4d5f3233
    60e0:	28204e49 	slti	zero,at,20041
    60e4:	3431322d 	ori	s1,at,0x322d
    60e8:	33383437 	andi	t8,t9,0x3437
    60ec:	2d373436 	sltiu	s7,t1,13366
    60f0:	01002931 	0x1002931
    60f4:	4e4901b5 	c3	0x4901b5
    60f8:	454c5f54 	0x454c5f54
    60fc:	36545341 	ori	s4,s2,0x5341
    6100:	494d5f34 	0x494d5f34
    6104:	2d28204e 	sltiu	t0,t1,8270
    6108:	4e495f5f 	c3	0x495f5f
    610c:	5f343654 	0x5f343654
    6110:	32392843 	andi	t9,s1,0x2843
    6114:	37333332 	ori	s3,t9,0x3332
    6118:	36333032 	ori	s3,s1,0x3032
    611c:	37343538 	ori	s4,t9,0x3538
    6120:	30383537 	andi	t8,at,0x3537
    6124:	312d2937 	andi	t5,t1,0x2937
    6128:	b7010029 	0xb7010029
    612c:	544e4901 	0x544e4901
    6130:	41454c5f 	0x41454c5f
    6134:	5f385453 	0x5f385453
    6138:	2058414d 	addi	t8,v0,16717
    613c:	37323128 	ori	s2,t9,0x3128
    6140:	b8010029 	swr	at,41(zero)
    6144:	544e4901 	0x544e4901
    6148:	41454c5f 	0x41454c5f
    614c:	36315453 	ori	s1,s1,0x5453
    6150:	58414d5f 	0x58414d5f
    6154:	32332820 	andi	s3,s1,0x2820
    6158:	29373637 	slti	s7,t1,13879
    615c:	01b90100 	0x1b90100
    6160:	5f544e49 	0x5f544e49
    6164:	5341454c 	0x5341454c
    6168:	5f323354 	0x5f323354
    616c:	2058414d 	addi	t8,v0,16717
    6170:	34313228 	ori	s1,at,0x3228
    6174:	33383437 	andi	t8,t9,0x3437
    6178:	29373436 	slti	s7,t1,13366
    617c:	01ba0100 	0x1ba0100
    6180:	5f544e49 	0x5f544e49
    6184:	5341454c 	0x5341454c
    6188:	5f343654 	0x5f343654
    618c:	2058414d 	addi	t8,v0,16717
    6190:	495f5f28 	0x495f5f28
    6194:	3436544e 	ori	s6,at,0x544e
    6198:	3928435f 	xori	t0,t1,0x435f
    619c:	33333232 	andi	s3,t9,0x3232
    61a0:	33303237 	andi	s0,t9,0x3237
    61a4:	34353836 	ori	s5,at,0x3836
    61a8:	38353737 	xori	s5,at,0x3737
    61ac:	29293730 	slti	t1,t1,14128
    61b0:	01bd0100 	0x1bd0100
    61b4:	544e4955 	0x544e4955
    61b8:	41454c5f 	0x41454c5f
    61bc:	5f385453 	0x5f385453
    61c0:	2058414d 	addi	t8,v0,16717
    61c4:	35353228 	ori	s5,t1,0x3228
    61c8:	be010029 	0xbe010029
    61cc:	4e495501 	c3	0x495501
    61d0:	454c5f54 	0x454c5f54
    61d4:	31545341 	andi	s4,t2,0x5341
    61d8:	414d5f36 	0x414d5f36
    61dc:	36282058 	ori	t0,s1,0x2058
    61e0:	35333535 	ori	s3,t1,0x3535
    61e4:	bf010029 	0xbf010029
    61e8:	4e495501 	c3	0x495501
    61ec:	454c5f54 	0x454c5f54
    61f0:	33545341 	andi	s4,k0,0x5341
    61f4:	414d5f32 	0x414d5f32
    61f8:	34282058 	ori	t0,at,0x2058
    61fc:	39343932 	xori	s4,t1,0x3932
    6200:	39323736 	xori	s2,t1,0x3736
    6204:	00295535 	0x295535
    6208:	5501c001 	0x5501c001
    620c:	5f544e49 	0x5f544e49
    6210:	5341454c 	0x5341454c
    6214:	5f343654 	0x5f343654
    6218:	2058414d 	addi	t8,v0,16717
    621c:	555f5f28 	0x555f5f28
    6220:	36544e49 	ori	s4,s2,0x4e49
    6224:	28435f34 	slti	v1,v0,24372
    6228:	34343831 	ori	s4,at,0x3831
    622c:	34343736 	ori	s4,at,0x3736
    6230:	37333730 	ori	s3,t9,0x3730
    6234:	35353930 	ori	s5,t1,0x3930
    6238:	35313631 	ori	s1,t1,0x3631
    623c:	01002929 	0x1002929
    6240:	4e4901c4 	c3	0x4901c4
    6244:	41465f54 	0x41465f54
    6248:	5f385453 	0x5f385453
    624c:	204e494d 	addi	t6,v0,18765
    6250:	32312d28 	andi	s1,s1,0x2d28
    6254:	01002938 	0x1002938
    6258:	4e4901c9 	c3	0x4901c9
    625c:	41465f54 	0x41465f54
    6260:	36315453 	ori	s1,s1,0x5453
    6264:	4e494d5f 	c3	0x494d5f
    6268:	322d2820 	andi	t5,s1,0x2820
    626c:	34373431 	ori	s7,at,0x3431
    6270:	34363338 	ori	s6,at,0x3338
    6274:	29312d37 	slti	s1,t1,11575
    6278:	01ca0100 	0x1ca0100
    627c:	5f544e49 	0x5f544e49
    6280:	54534146 	0x54534146
    6284:	4d5f3233 	0x4d5f3233
    6288:	28204e49 	slti	zero,at,20041
    628c:	3431322d 	ori	s1,at,0x322d
    6290:	33383437 	andi	t8,t9,0x3437
    6294:	2d373436 	sltiu	s7,t1,13366
    6298:	01002931 	0x1002931
    629c:	4e4901cc 	c3	0x4901cc
    62a0:	41465f54 	0x41465f54
    62a4:	34365453 	ori	s6,at,0x5453
    62a8:	4e494d5f 	c3	0x494d5f
    62ac:	5f2d2820 	0x5f2d2820
    62b0:	544e495f 	0x544e495f
    62b4:	435f3436 	c0	0x15f3436
    62b8:	32323928 	andi	s2,s1,0x3928
    62bc:	32373333 	andi	s7,s1,0x3333
    62c0:	38363330 	xori	s6,at,0x3330
    62c4:	37373435 	ori	s7,t9,0x3435
    62c8:	37303835 	ori	s0,t9,0x3835
    62cc:	29312d29 	slti	s1,t1,11561
    62d0:	01ce0100 	0x1ce0100
    62d4:	5f544e49 	0x5f544e49
    62d8:	54534146 	0x54534146
    62dc:	414d5f38 	0x414d5f38
    62e0:	31282058 	andi	t0,t1,0x2058
    62e4:	00293732 	0x293732
    62e8:	4901d301 	bc2t	ffffaef0 <foobar+0xffffaca4>
    62ec:	465f544e 	c1	0x5f544e
    62f0:	31545341 	andi	s4,t2,0x5341
    62f4:	414d5f36 	0x414d5f36
    62f8:	32282058 	andi	t0,s1,0x2058
    62fc:	34373431 	ori	s7,at,0x3431
    6300:	34363338 	ori	s6,at,0x3338
    6304:	01002937 	0x1002937
    6308:	4e4901d4 	c3	0x4901d4
    630c:	41465f54 	0x41465f54
    6310:	32335453 	andi	s3,s1,0x5453
    6314:	58414d5f 	0x58414d5f
    6318:	31322820 	andi	s2,t1,0x2820
    631c:	38343734 	xori	s4,at,0x3734
    6320:	37343633 	ori	s4,t9,0x3633
    6324:	d6010029 	0xd6010029
    6328:	544e4901 	0x544e4901
    632c:	5341465f 	0x5341465f
    6330:	5f343654 	0x5f343654
    6334:	2058414d 	addi	t8,v0,16717
    6338:	495f5f28 	0x495f5f28
    633c:	3436544e 	ori	s6,at,0x544e
    6340:	3928435f 	xori	t0,t1,0x435f
    6344:	33333232 	andi	s3,t9,0x3232
    6348:	33303237 	andi	s0,t9,0x3237
    634c:	34353836 	ori	s5,at,0x3836
    6350:	38353737 	xori	s5,at,0x3737
    6354:	29293730 	slti	t1,t1,14128
    6358:	01d90100 	0x1d90100
    635c:	544e4955 	0x544e4955
    6360:	5341465f 	0x5341465f
    6364:	4d5f3854 	0x4d5f3854
    6368:	28205841 	slti	zero,at,22593
    636c:	29353532 	slti	s5,t1,13618
    6370:	01de0100 	0x1de0100
    6374:	544e4955 	0x544e4955
    6378:	5341465f 	0x5341465f
    637c:	5f363154 	0x5f363154
    6380:	2058414d 	addi	t8,v0,16717
    6384:	39323428 	xori	s2,t1,0x3428
    6388:	37363934 	ori	s6,t9,0x3934
    638c:	55353932 	0x55353932
    6390:	df010029 	0xdf010029
    6394:	4e495501 	c3	0x495501
    6398:	41465f54 	0x41465f54
    639c:	32335453 	andi	s3,s1,0x5453
    63a0:	58414d5f 	0x58414d5f
    63a4:	32342820 	andi	s4,s1,0x2820
    63a8:	36393439 	ori	t9,s1,0x3439
    63ac:	35393237 	ori	t9,t1,0x3237
    63b0:	01002955 	0x1002955
    63b4:	495501e1 	0x495501e1
    63b8:	465f544e 	c1	0x5f544e
    63bc:	36545341 	ori	s4,s2,0x5341
    63c0:	414d5f34 	0x414d5f34
    63c4:	5f282058 	0x5f282058
    63c8:	4e49555f 	c3	0x49555f
    63cc:	5f343654 	0x5f343654
    63d0:	38312843 	xori	s1,at,0x2843
    63d4:	37363434 	ori	s6,t9,0x3434
    63d8:	37303434 	ori	s0,t9,0x3434
    63dc:	39303733 	xori	s0,t1,0x3733
    63e0:	36313535 	ori	s1,s1,0x3535
    63e4:	29293531 	slti	t1,t1,13617
    63e8:	01ea0100 	0x1ea0100
    63ec:	50544e49 	0x50544e49
    63f0:	4d5f5254 	0x4d5f5254
    63f4:	28204e49 	slti	zero,at,20041
    63f8:	3431322d 	ori	s1,at,0x322d
    63fc:	33383437 	andi	t8,t9,0x3437
    6400:	2d373436 	sltiu	s7,t1,13366
    6404:	01002931 	0x1002931
    6408:	4e4901eb 	c3	0x4901eb
    640c:	52545054 	0x52545054
    6410:	58414d5f 	0x58414d5f
    6414:	31322820 	andi	s2,t1,0x2820
    6418:	38343734 	xori	s4,at,0x3734
    641c:	37343633 	ori	s4,t9,0x3633
    6420:	ec010029 	swc3	$1,41(zero)
    6424:	4e495501 	c3	0x495501
    6428:	52545054 	0x52545054
    642c:	58414d5f 	0x58414d5f
    6430:	32342820 	andi	s4,s1,0x2820
    6434:	36393439 	ori	t9,s1,0x3439
    6438:	35393237 	ori	t9,t1,0x3237
    643c:	01002955 	0x1002955
    6440:	4e4901f1 	c3	0x4901f1
    6444:	58414d54 	0x58414d54
    6448:	4e494d5f 	c3	0x494d5f
    644c:	5f2d2820 	0x5f2d2820
    6450:	544e495f 	0x544e495f
    6454:	435f3436 	c0	0x15f3436
    6458:	32323928 	andi	s2,s1,0x3928
    645c:	32373333 	andi	s7,s1,0x3333
    6460:	38363330 	xori	s6,at,0x3330
    6464:	37373435 	ori	s7,t9,0x3435
    6468:	37303835 	ori	s0,t9,0x3835
    646c:	29312d29 	slti	s1,t1,11561
    6470:	01f30100 	0x1f30100
    6474:	4d544e49 	0x4d544e49
    6478:	4d5f5841 	0x4d5f5841
    647c:	28205841 	slti	zero,at,22593
    6480:	4e495f5f 	c3	0x495f5f
    6484:	5f343654 	0x5f343654
    6488:	32392843 	andi	t9,s1,0x2843
    648c:	37333332 	ori	s3,t9,0x3332
    6490:	36333032 	ori	s3,s1,0x3032
    6494:	37343538 	ori	s4,t9,0x3538
    6498:	30383537 	andi	t8,at,0x3537
    649c:	00292937 	0x292937
    64a0:	5501f601 	0x5501f601
    64a4:	4d544e49 	0x4d544e49
    64a8:	4d5f5841 	0x4d5f5841
    64ac:	28205841 	slti	zero,at,22593
    64b0:	49555f5f 	0x49555f5f
    64b4:	3436544e 	ori	s6,at,0x544e
    64b8:	3128435f 	andi	t0,t1,0x435f
    64bc:	36343438 	ori	s4,s1,0x3438
    64c0:	30343437 	andi	s4,at,0x3437
    64c4:	30373337 	andi	s7,at,0x3337
    64c8:	31353539 	andi	s5,t1,0x3539
    64cc:	29353136 	slti	s5,t1,12598
    64d0:	80010029 	lb	at,41(zero)
    64d4:	52545002 	0x52545002
    64d8:	46464944 	c1	0x464944
    64dc:	4e494d5f 	c3	0x494d5f
    64e0:	322d2820 	andi	t5,s1,0x2820
    64e4:	34373431 	ori	s7,at,0x3431
    64e8:	34363338 	ori	s6,at,0x3338
    64ec:	29312d37 	slti	s1,t1,11575
    64f0:	02810100 	0x2810100
    64f4:	44525450 	0x44525450
    64f8:	5f464649 	0x5f464649
    64fc:	2058414d 	addi	t8,v0,16717
    6500:	34313228 	ori	s1,at,0x3228
    6504:	33383437 	andi	t8,t9,0x3437
    6508:	29373436 	slti	s7,t1,13366
    650c:	02850100 	0x2850100
    6510:	5f474953 	0x5f474953
    6514:	4d4f5441 	0x4d4f5441
    6518:	4d5f4349 	0x4d5f4349
    651c:	28204e49 	slti	zero,at,20041
    6520:	3431322d 	ori	s1,at,0x322d
    6524:	33383437 	andi	t8,t9,0x3437
    6528:	2d373436 	sltiu	s7,t1,13366
    652c:	01002931 	0x1002931
    6530:	49530286 	0x49530286
    6534:	54415f47 	0x54415f47
    6538:	43494d4f 	c0	0x1494d4f
    653c:	58414d5f 	0x58414d5f
    6540:	31322820 	andi	s2,t1,0x2820
    6544:	38343734 	xori	s4,at,0x3734
    6548:	37343633 	ori	s4,t9,0x3633
    654c:	8c010029 	lw	at,41(zero)
    6550:	5a495302 	0x5a495302
    6554:	414d5f45 	0x414d5f45
    6558:	34282058 	ori	t0,at,0x2058
    655c:	39343932 	xori	s4,t1,0x3932
    6560:	39323736 	xori	s2,t1,0x3736
    6564:	00295535 	0x295535
    6568:	57029201 	0x57029201
    656c:	52414843 	0x52414843
    6570:	4e494d5f 	c3	0x494d5f
    6574:	575f5f20 	0x575f5f20
    6578:	52414843 	0x52414843
    657c:	4e494d5f 	c3	0x494d5f
    6580:	02930100 	0x2930100
    6584:	41484357 	0x41484357
    6588:	414d5f52 	0x414d5f52
    658c:	5f5f2058 	0x5f5f2058
    6590:	41484357 	0x41484357
    6594:	414d5f52 	0x414d5f52
    6598:	97010058 	lhu	at,88(t8)
    659c:	4e495702 	c3	0x495702
    65a0:	494d5f54 	0x494d5f54
    65a4:	3028204e 	andi	t0,at,0x204e
    65a8:	01002975 	0x1002975
    65ac:	49570298 	0x49570298
    65b0:	4d5f544e 	0x4d5f544e
    65b4:	28205841 	slti	zero,at,22593
    65b8:	34393234 	ori	t9,at,0x3234
    65bc:	32373639 	andi	s7,s1,0x3639
    65c0:	29753539 	slti	s5,t3,13625
    65c4:	02a20100 	0x2a20100
    65c8:	38544e49 	xori	s4,v0,0x4e49
    65cc:	6328435f 	0x6328435f
    65d0:	00632029 	0x632029
    65d4:	4902a301 	0x4902a301
    65d8:	3631544e 	ori	s1,s1,0x544e
    65dc:	6328435f 	0x6328435f
    65e0:	00632029 	0x632029
    65e4:	4902a401 	0x4902a401
    65e8:	3233544e 	andi	s3,s1,0x544e
    65ec:	6328435f 	0x6328435f
    65f0:	00632029 	0x632029
    65f4:	4902a801 	0x4902a801
    65f8:	3436544e 	ori	s6,at,0x544e
    65fc:	6328435f 	0x6328435f
    6600:	20632029 	addi	v1,v1,8233
    6604:	4c202323 	0x4c202323
    6608:	ac01004c 	sw	at,76(zero)
    660c:	4e495502 	c3	0x495502
    6610:	435f3854 	c0	0x15f3854
    6614:	20296328 	addi	t1,at,25384
    6618:	ad010063 	sw	at,99(t0)
    661c:	4e495502 	c3	0x495502
    6620:	5f363154 	0x5f363154
    6624:	29632843 	slti	v1,t3,10307
    6628:	01006320 	0x1006320
    662c:	495502ae 	0x495502ae
    6630:	3233544e 	andi	s3,s1,0x544e
    6634:	6328435f 	0x6328435f
    6638:	20632029 	addi	v1,v1,8233
    663c:	55202323 	0x55202323
    6640:	02b20100 	0x2b20100
    6644:	544e4955 	0x544e4955
    6648:	435f3436 	c0	0x15f3436
    664c:	20296328 	addi	t1,at,25384
    6650:	23232063 	addi	v1,t9,8291
    6654:	4c4c5520 	0x4c4c5520
    6658:	02ba0100 	0x2ba0100
    665c:	4d544e49 	0x4d544e49
    6660:	435f5841 	c0	0x15f5841
    6664:	20296328 	addi	t1,at,25384
    6668:	23232063 	addi	v1,t9,8291
    666c:	004c4c20 	0x4c4c20
    6670:	5502bb01 	0x5502bb01
    6674:	4d544e49 	0x4d544e49
    6678:	435f5841 	c0	0x15f5841
    667c:	20296328 	addi	t1,at,25384
    6680:	23232063 	addi	v1,t9,8291
    6684:	4c4c5520 	0x4c4c5520
    6688:	43010400 	c0	0x1010400
    668c:	5f4f5349 	0x5f4f5349
    6690:	28474552 	slti	a3,v0,17746
    6694:	2820296f 	slti	zero,at,10607
    6698:	296f2820 	slti	t7,t3,10272
    669c:	6761742e 	0x6761742e
    66a0:	203d3d20 	addi	sp,at,15648
    66a4:	525f544f 	0x525f544f
    66a8:	29204745 	slti	zero,t1,18245
    66ac:	49440100 	0x49440100
    66b0:	445f4f53 	0x445f4f53
    66b4:	52444441 	0x52444441
    66b8:	20296f28 	addi	t1,at,28456
    66bc:	6f282028 	0x6f282028
    66c0:	61742e29 	0x61742e29
    66c4:	3d3d2067 	0x3d3d2067
    66c8:	5f544f20 	0x5f544f20
    66cc:	45524944 	0x45524944
    66d0:	44415443 	0x44415443
    66d4:	29205244 	slti	zero,t1,21060
    66d8:	49450100 	0x49450100
    66dc:	495f4f53 	0x495f4f53
    66e0:	44454d4d 	0x44454d4d
    66e4:	20296f28 	addi	t1,at,28456
    66e8:	6f282028 	0x6f282028
    66ec:	61742e29 	0x61742e29
    66f0:	3d3d2067 	0x3d3d2067
    66f4:	5f544f20 	0x5f544f20
    66f8:	454d4d49 	0x454d4d49
    66fc:	00292044 	0x292044
    6700:	53496801 	0x53496801
    6704:	43505f4c 	c0	0x1505f4c
    6708:	20296c28 	addi	t1,at,27688
    670c:	20282028 	addi	t0,at,8232
    6710:	2e29206c 	sltiu	t1,s1,8300
    6714:	20676174 	addi	a3,v1,24948
    6718:	4c203d3d 	0x4c203d3d
    671c:	4c454241 	0x4c454241
    6720:	2043505f 	addi	v1,v0,20575
    6724:	69010029 	0x69010029
    6728:	5f4c5349 	0x5f4c5349
    672c:	6c284345 	0x6c284345
    6730:	20282029 	addi	t0,at,8233
    6734:	206c2028 	addi	t4,v1,8232
    6738:	61742e29 	0x61742e29
    673c:	3d3d2067 	0x3d3d2067
    6740:	42414c20 	c0	0x414c20
    6744:	455f4c45 	0x455f4c45
    6748:	00292043 	0x292043
    674c:	53496a01 	0x53496a01
    6750:	4f4c5f4c 	c3	0x14c5f4c
    6754:	284c4143 	slti	t4,v0,16707
    6758:	2820296c 	slti	zero,at,10604
    675c:	6c202820 	0x6c202820
    6760:	742e2920 	jalx	b8a480 <foobar+0xb8a234>
    6764:	3d206761 	0x3d206761
    6768:	414c203d 	0x414c203d
    676c:	5f4c4542 	0x5f4c4542
    6770:	41434f4c 	0x41434f4c
    6774:	0029204c 	syscall	0xa481
    6778:	53496b01 	0x53496b01
    677c:	42415f4c 	c0	0x415f4c
    6780:	296c2853 	slti	t4,t3,10323
    6784:	28202820 	slti	zero,at,10272
    6788:	29206c20 	slti	zero,t1,27680
    678c:	6761742e 	0x6761742e
    6790:	203d3d20 	addi	sp,at,15648
    6794:	4542414c 	0x4542414c
    6798:	42415f4c 	c0	0x415f4c
    679c:	554c4f53 	0x554c4f53
    67a0:	29204554 	slti	zero,t1,17748
    67a4:	496c0100 	0x496c0100
    67a8:	415f4c53 	0x415f4c53
    67ac:	49445342 	0x49445342
    67b0:	54434552 	0x54434552
    67b4:	20296c28 	addi	t1,at,27688
    67b8:	53492028 	0x53492028
    67bc:	42415f4c 	c0	0x415f4c
    67c0:	28202853 	slti	zero,at,10323
    67c4:	29206c20 	slti	zero,t1,27680
    67c8:	26202920 	addiu	zero,s1,10528
    67cc:	53492026 	0x53492026
    67d0:	4d495f4f 	0x4d495f4f
    67d4:	2844454d 	slti	a0,v0,17741
    67d8:	6c202820 	0x6c202820
    67dc:	612e2920 	0x612e2920
    67e0:	29207362 	slti	zero,t1,29538
    67e4:	01002920 	0x1002920
    67e8:	4c53496d 	0x4c53496d
    67ec:	5342415f 	0x5342415f
    67f0:	49444e49 	0x49444e49
    67f4:	54434552 	0x54434552
    67f8:	20296c28 	addi	t1,at,27688
    67fc:	53492028 	0x53492028
    6800:	42415f4c 	c0	0x415f4c
    6804:	28202853 	slti	zero,at,10323
    6808:	29206c20 	slti	zero,t1,27680
    680c:	26202920 	addiu	zero,s1,10528
    6810:	49212026 	0x49212026
    6814:	495f4f53 	0x495f4f53
    6818:	44454d4d 	0x44454d4d
    681c:	20282028 	addi	t0,at,8232
    6820:	2e29206c 	sltiu	t1,s1,8300
    6824:	20736261 	addi	s3,v1,25185
    6828:	00292029 	0x292029
    682c:	2c0b0304 	sltiu	t3,zero,772
    6830:	4d5f0701 	0x4d5f0701
    6834:	4d455f43 	0x4d455f43
    6838:	45545449 	0x45545449
    683c:	5f485f52 	0x5f485f52
    6840:	09030020 	j	40c0080 <foobar+0x40bfe34>
    6844:	0d010409 	jal	4041024 <foobar+0x4040dd8>
    6848:	4c5f524e 	0x4c5f524e
    684c:	4c41434f 	0x4c41434f
    6850:	42414c5f 	c0	0x414c5f
    6854:	20534c45 	addi	s3,v0,19525
    6858:	04003031 	bltz	zero,12920 <foobar+0x126d4>
    685c:	012d0e03 	0x12d0e03
    6860:	4c455f07 	0x4c455f07
    6864:	5f485f46 	0x5f485f46
    6868:	10010020 	beq	zero,at,68ec <.debug_macinfo+0x68ec>
    686c:	5f464c45 	0x5f464c45
    6870:	4947414d 	0x4947414d
    6874:	5a495343 	0x5a495343
    6878:	00342045 	0x342045
    687c:	49451301 	0x49451301
    6880:	414c435f 	0x414c435f
    6884:	34205353 	ori	zero,at,0x5353
    6888:	45140100 	0x45140100
    688c:	4c435f49 	0x4c435f49
    6890:	5f535341 	0x5f535341
    6894:	454e4f4e 	0x454e4f4e
    6898:	01003020 	add	a2,t0,zero
    689c:	5f494515 	0x5f494515
    68a0:	53414c43 	0x53414c43
    68a4:	32335f53 	andi	s3,s1,0x5f53
    68a8:	01003120 	0x1003120
    68ac:	5f494516 	0x5f494516
    68b0:	53414c43 	0x53414c43
    68b4:	34365f53 	ori	s6,at,0x5f53
    68b8:	01003220 	0x1003220
    68bc:	5f494517 	0x5f494517
    68c0:	41544144 	0x41544144
    68c4:	01003520 	0x1003520
    68c8:	5f494518 	0x5f494518
    68cc:	41544144 	0x41544144
    68d0:	4e4f4e5f 	c3	0x4f4e5f
    68d4:	00302045 	0x302045
    68d8:	49451901 	0x49451901
    68dc:	5441445f 	0x5441445f
    68e0:	534c5f41 	0x534c5f41
    68e4:	00312042 	0x312042
    68e8:	49451a01 	0x49451a01
    68ec:	5441445f 	0x5441445f
    68f0:	534d5f41 	0x534d5f41
    68f4:	00322042 	0x322042
    68f8:	49451b01 	0x49451b01
    68fc:	5245565f 	0x5245565f
    6900:	4e4f4953 	c3	0x4f4953
    6904:	01003620 	0x1003620
    6908:	5f49451c 	0x5f49451c
    690c:	20444150 	addi	a0,v0,16720
    6910:	1d010037 	0x1d010037
    6914:	4e5f4945 	c3	0x5f4945
    6918:	4e454449 	c3	0x454449
    691c:	36312054 	ori	s1,s1,0x2054
    6920:	45200100 	0x45200100
    6924:	4f4e5f56 	c3	0x14e5f56
    6928:	3020454e 	andi	zero,at,0x454e
    692c:	45210100 	0x45210100
    6930:	55435f56 	0x55435f56
    6934:	4e455252 	c3	0x455252
    6938:	00312054 	0x312054
    693c:	54452401 	0x54452401
    6940:	4e4f4e5f 	c3	0x4f4e5f
    6944:	00302045 	0x302045
    6948:	54452501 	0x54452501
    694c:	4c45525f 	0x4c45525f
    6950:	01003120 	0x1003120
    6954:	5f544526 	0x5f544526
    6958:	43455845 	c0	0x1455845
    695c:	01003220 	0x1003220
    6960:	5f544527 	0x5f544527
    6964:	204e5944 	addi	t6,v0,22852
    6968:	28010033 	slti	at,zero,51
    696c:	435f5445 	c0	0x15f5445
    6970:	2045524f 	addi	a1,v0,21071
    6974:	29010034 	slti	at,t0,52
    6978:	4c5f5445 	0x4c5f5445
    697c:	4f52504f 	c3	0x152504f
    6980:	78302043 	0x78302043
    6984:	30306666 	andi	s0,at,0x6666
    6988:	452a0100 	0x452a0100
    698c:	49485f54 	0x49485f54
    6990:	434f5250 	c0	0x14f5250
    6994:	66783020 	0x66783020
    6998:	00666666 	0x666666
    699c:	4d452d01 	0x4d452d01
    69a0:	4e4f4e5f 	c3	0x4f4e5f
    69a4:	00302045 	0x302045
    69a8:	4d452e01 	0x4d452e01
    69ac:	3638335f 	ori	t8,s1,0x335f
    69b0:	01003320 	0x1003320
    69b4:	5f4d452f 	0x5f4d452f
    69b8:	5350494d 	0x5350494d
    69bc:	01003820 	add	a3,t0,zero
    69c0:	5f545032 	0x5f545032
    69c4:	4c4c554e 	0x4c4c554e
    69c8:	01003020 	add	a2,t0,zero
    69cc:	5f545033 	0x5f545033
    69d0:	44414f4c 	0x44414f4c
    69d4:	01003120 	0x1003120
    69d8:	5f465036 	0x5f465036
    69dc:	78302058 	0x78302058
    69e0:	37010031 	ori	at,t8,0x31
    69e4:	575f4650 	0x575f4650
    69e8:	32783020 	andi	t8,s3,0x3020
    69ec:	50380100 	0x50380100
    69f0:	20525f46 	addi	s2,v0,24390
    69f4:	00347830 	0x347830
    69f8:	48533b01 	0x48533b01
    69fc:	554e5f54 	0x554e5f54
    6a00:	30204c4c 	andi	zero,at,0x4c4c
    6a04:	533c0100 	0x533c0100
    6a08:	505f5448 	0x505f5448
    6a0c:	42474f52 	c0	0x474f52
    6a10:	20535449 	addi	s3,v0,21577
    6a14:	3d010031 	0x3d010031
    6a18:	5f544853 	0x5f544853
    6a1c:	544d5953 	0x544d5953
    6a20:	32204241 	andi	zero,s1,0x4241
    6a24:	533e0100 	0x533e0100
    6a28:	535f5448 	0x535f5448
    6a2c:	41545254 	0x41545254
    6a30:	00332042 	0x332042
    6a34:	48534101 	0x48534101
    6a38:	4e555f4e 	c3	0x555f4e
    6a3c:	20464544 	addi	a2,v0,17732
    6a40:	44010030 	0x44010030
    6a44:	5f464853 	0x5f464853
    6a48:	4f4c4c41 	c3	0x14c4c41
    6a4c:	78302043 	0x78302043
    6a50:	45010032 	bc1t	6b1c <.debug_macinfo+0x6b1c>
    6a54:	5f464853 	0x5f464853
    6a58:	43455845 	c0	0x1455845
    6a5c:	54534e49 	0x54534e49
    6a60:	78302052 	0x78302052
    6a64:	48010034 	0x48010034
    6a68:	33464c45 	andi	a2,k0,0x4c45
    6a6c:	54535f32 	0x54535f32
    6a70:	4e49425f 	c3	0x49425f
    6a74:	29692844 	slti	t1,t3,10308
    6a78:	69282820 	0x69282820
    6a7c:	343e3e29 	ori	s8,at,0x3e29
    6a80:	49010029 	bc2t	6b28 <.debug_macinfo+0x6b28>
    6a84:	33464c45 	andi	a2,k0,0x4c45
    6a88:	54535f32 	0x54535f32
    6a8c:	5059545f 	0x5059545f
    6a90:	29692845 	slti	t1,t3,10309
    6a94:	69282820 	0x69282820
    6a98:	78302629 	0x78302629
    6a9c:	01002966 	0x1002966
    6aa0:	464c454a 	c1	0x4c454a
    6aa4:	535f3233 	0x535f3233
    6aa8:	4e495f54 	c3	0x495f54
    6aac:	62284f46 	0x62284f46
    6ab0:	2029742c 	addi	t1,at,29740
    6ab4:	62282828 	0x62282828
    6ab8:	343c3c29 	ori	gp,at,0x3c29
    6abc:	28282b29 	slti	t0,at,11049
    6ac0:	30262974 	andi	a2,at,0x2974
    6ac4:	29296678 	slti	t1,t1,26232
    6ac8:	534d0100 	0x534d0100
    6acc:	4c5f4254 	0x4c5f4254
    6ad0:	4c41434f 	0x4c41434f
    6ad4:	01003020 	add	a2,t0,zero
    6ad8:	54545350 	0x54545350
    6adc:	4e55465f 	c3	0x55465f
    6ae0:	00322043 	0x322043
    6ae4:	68740104 	0x68740104
    6ae8:	735f7361 	0x735f7361
    6aec:	6c6c6970 	0x6c6c6970
    6af0:	20296d28 	addi	t1,at,27944
    6af4:	65742028 	0x65742028
    6af8:	5f73706d 	0x5f73706d
    6afc:	65636361 	0x65636361
    6b00:	64657373 	0x64657373
    6b04:	206d2028 	addi	t5,v1,8232
    6b08:	203e2029 	addi	s8,at,8233
    6b0c:	6e3e2d6d 	0x6e3e2d6d
    6b10:	65745f72 	0x65745f72
    6b14:	725f706d 	0x725f706d
    6b18:	20736765 	addi	s3,v1,26469
    6b1c:	03040029 	0x3040029
    6b20:	07012e0c 	bgez	t8,12354 <foobar+0x12108>
    6b24:	424f4c5f 	c0	0x4f4c5f
    6b28:	5443454a 	0x5443454a
    6b2c:	205f485f 	addi	ra,v0,18527
    6b30:	2f0a0300 	sltiu	t2,t8,768
    6b34:	4c5f1201 	0x4c5f1201
    6b38:	58554e49 	0x58554e49
    6b3c:	53494c5f 	0x53494c5f
    6b40:	20485f54 	addi	t0,v0,24404
    6b44:	63270100 	0x63270100
    6b48:	61746e6f 	0x61746e6f
    6b4c:	72656e69 	0x72656e69
    6b50:	28666f5f 	slti	a2,v1,28511
    6b54:	2c727470 	sltiu	s2,v1,29808
    6b58:	65707974 	0x65707974
    6b5c:	6d656d2c 	0x6d656d2c
    6b60:	29726562 	slti	s2,t3,25954
    6b64:	207b2820 	addi	k1,v1,10272
    6b68:	736e6f63 	0x736e6f63
    6b6c:	79742074 	0x79742074
    6b70:	666f6570 	0x666f6570
    6b74:	28282028 	slti	t0,at,8232
    6b78:	65707974 	0x65707974
    6b7c:	30292a20 	andi	t1,at,0x2a20
    6b80:	6d3e2d29 	0x6d3e2d29
    6b84:	65626d65 	0x65626d65
    6b88:	20292072 	addi	t1,at,8306
    6b8c:	6d5f5f2a 	0x6d5f5f2a
    6b90:	20727470 	addi	s2,v1,29808
    6b94:	7028203d 	0x7028203d
    6b98:	3b297274 	xori	t1,t9,0x7274
    6b9c:	79742820 	0x79742820
    6ba0:	2a206570 	slti	zero,s1,25968
    6ba4:	28202829 	slti	zero,at,10281
    6ba8:	72616863 	0x72616863
    6bac:	5f292a20 	0x5f292a20
    6bb0:	74706d5f 	jalx	1c1b57c <foobar+0x1c1b330>
    6bb4:	202d2072 	addi	t5,at,8306
    6bb8:	7366666f 	0x7366666f
    6bbc:	666f7465 	0x666f7465
    6bc0:	70797428 	0x70797428
    6bc4:	656d2c65 	0x656d2c65
    6bc8:	7265626d 	0x7265626d
    6bcc:	3b292029 	xori	t1,t9,0x2029
    6bd0:	0100297d 	0x100297d
    6bd4:	53494c32 	0x53494c32
    6bd8:	4f505f54 	c3	0x1505f54
    6bdc:	4e4f5349 	c3	0x4f5349
    6be0:	28282031 	slti	t0,at,8241
    6be4:	64696f76 	0x64696f76
    6be8:	20292a20 	addi	t1,at,10784
    6bec:	30307830 	andi	s0,at,0x7830
    6bf0:	31303031 	andi	s0,t1,0x3031
    6bf4:	00293030 	0x293030
    6bf8:	494c3301 	0x494c3301
    6bfc:	505f5453 	0x505f5453
    6c00:	4f53494f 	c3	0x153494f
    6c04:	2820324e 	slti	zero,at,12878
    6c08:	696f7628 	0x696f7628
    6c0c:	292a2064 	slti	t2,t1,8292
    6c10:	30783020 	andi	t8,v1,0x3020
    6c14:	30303230 	andi	s0,at,0x3230
    6c18:	29303032 	slti	s0,t1,12338
    6c1c:	4c420100 	0x4c420100
    6c20:	5f545349 	0x5f545349
    6c24:	44414548 	0x44414548
    6c28:	494e495f 	0x494e495f
    6c2c:	616e2854 	0x616e2854
    6c30:	2029656d 	addi	t1,at,25965
    6c34:	2826207b 	slti	a2,at,8315
    6c38:	656d616e 	0x656d616e
    6c3c:	26202c29 	addiu	zero,s1,11305
    6c40:	6d616e28 	0x6d616e28
    6c44:	7d202965 	0x7d202965
    6c48:	4c440100 	0x4c440100
    6c4c:	5f545349 	0x5f545349
    6c50:	44414548 	0x44414548
    6c54:	6d616e28 	0x6d616e28
    6c58:	73202965 	0x73202965
    6c5c:	63757274 	0x63757274
    6c60:	696c2074 	0x696c2074
    6c64:	685f7473 	0x685f7473
    6c68:	20646165 	addi	a0,v1,24933
    6c6c:	656d616e 	0x656d616e
    6c70:	4c203d20 	0x4c203d20
    6c74:	5f545349 	0x5f545349
    6c78:	44414548 	0x44414548
    6c7c:	494e495f 	0x494e495f
    6c80:	616e2854 	0x616e2854
    6c84:	0029656d 	0x29656d
    6c88:	4e494701 	c3	0x494701
    6c8c:	4c5f5449 	0x4c5f5449
    6c90:	5f545349 	0x5f545349
    6c94:	44414548 	0x44414548
    6c98:	72747028 	0x72747028
    6c9c:	6f642029 	0x6f642029
    6ca0:	28207b20 	slti	zero,at,31520
    6ca4:	29727470 	slti	s2,t3,29808
    6ca8:	656e3e2d 	0x656e3e2d
    6cac:	3d207478 	0x3d207478
    6cb0:	74702820 	jalx	1c0a080 <foobar+0x1c09e34>
    6cb4:	203b2972 	addi	k1,at,10610
    6cb8:	72747028 	0x72747028
    6cbc:	703e2d29 	0x703e2d29
    6cc0:	20766572 	addi	s6,v1,25970
    6cc4:	7028203d 	0x7028203d
    6cc8:	3b297274 	xori	t1,t9,0x7274
    6ccc:	77207d20 	jalx	c81f480 <foobar+0xc81f234>
    6cd0:	656c6968 	0x656c6968
    6cd4:	29302820 	slti	s0,t1,10272
    6cd8:	01eb0100 	0x1eb0100
    6cdc:	7473696c 	jalx	1cda5b0 <foobar+0x1cda364>
    6ce0:	746e655f 	jalx	1b9957c <foobar+0x1b99330>
    6ce4:	70287972 	0x70287972
    6ce8:	742c7274 	jalx	b1c9d0 <foobar+0xb1c784>
    6cec:	2c657079 	sltiu	a1,v1,28793
    6cf0:	626d656d 	0x626d656d
    6cf4:	20297265 	addi	t1,at,29285
    6cf8:	746e6f63 	jalx	1b9bd8c <foobar+0x1b9bb40>
    6cfc:	656e6961 	0x656e6961
    6d00:	666f5f72 	0x666f5f72
    6d04:	72747028 	0x72747028
    6d08:	7974202c 	0x7974202c
    6d0c:	202c6570 	addi	t4,at,25968
    6d10:	626d656d 	0x626d656d
    6d14:	00297265 	0x297265
    6d18:	6c01f401 	0x6c01f401
    6d1c:	5f747369 	0x5f747369
    6d20:	5f726f66 	0x5f726f66
    6d24:	68636165 	0x68636165
    6d28:	736f7028 	0x736f7028
    6d2c:	6165682c 	0x6165682c
    6d30:	66202964 	0x66202964
    6d34:	2820726f 	slti	zero,at,29295
    6d38:	20736f70 	addi	s3,v1,28528
    6d3c:	6828203d 	0x6828203d
    6d40:	29646165 	slti	a0,t3,24933
    6d44:	656e3e2d 	0x656e3e2d
    6d48:	203b7478 	addi	k1,at,29816
    6d4c:	20736f70 	addi	s3,v1,28528
    6d50:	28203d21 	slti	zero,at,15649
    6d54:	64616568 	0x64616568
    6d58:	70203b29 	0x70203b29
    6d5c:	3d20736f 	0x3d20736f
    6d60:	736f7020 	0x736f7020
    6d64:	656e3e2d 	0x656e3e2d
    6d68:	00297478 	0x297478
    6d6c:	5f028201 	0x5f028201
    6d70:	73696c5f 	0x73696c5f
    6d74:	6f665f74 	0x6f665f74
    6d78:	61655f72 	0x61655f72
    6d7c:	70286863 	0x70286863
    6d80:	682c736f 	0x682c736f
    6d84:	29646165 	slti	a0,t3,24933
    6d88:	726f6620 	0x726f6620
    6d8c:	6f702820 	0x6f702820
    6d90:	203d2073 	addi	sp,at,8307
    6d94:	61656828 	0x61656828
    6d98:	3e2d2964 	0x3e2d2964
    6d9c:	7478656e 	jalx	1e195b8 <foobar+0x1e1936c>
    6da0:	6f70203b 	0x6f70203b
    6da4:	3d212073 	0x3d212073
    6da8:	65682820 	0x65682820
    6dac:	3b296461 	xori	t1,t9,0x6461
    6db0:	736f7020 	0x736f7020
    6db4:	70203d20 	0x70203d20
    6db8:	3e2d736f 	0x3e2d736f
    6dbc:	7478656e 	jalx	1e195b8 <foobar+0x1e1936c>
    6dc0:	8a010029 	lwl	at,41(s0)
    6dc4:	73696c02 	0x73696c02
    6dc8:	6f665f74 	0x6f665f74
    6dcc:	61655f72 	0x61655f72
    6dd0:	705f6863 	0x705f6863
    6dd4:	28766572 	slti	s6,v1,25970
    6dd8:	2c736f70 	sltiu	s3,v1,28528
    6ddc:	64616568 	0x64616568
    6de0:	6f662029 	0x6f662029
    6de4:	70282072 	0x70282072
    6de8:	3d20736f 	0x3d20736f
    6dec:	65682820 	0x65682820
    6df0:	2d296461 	sltiu	t1,t1,25697
    6df4:	6572703e 	0x6572703e
    6df8:	70203b76 	0x70203b76
    6dfc:	2120736f 	addi	zero,t1,29551
    6e00:	6828203d 	0x6828203d
    6e04:	29646165 	slti	a0,t3,24933
    6e08:	6f70203b 	0x6f70203b
    6e0c:	203d2073 	addi	sp,at,8307
    6e10:	2d736f70 	sltiu	s3,t3,28528
    6e14:	6572703e 	0x6572703e
    6e18:	01002976 	0x1002976
    6e1c:	696c0294 	0x696c0294
    6e20:	665f7473 	0x665f7473
    6e24:	655f726f 	0x655f726f
    6e28:	5f686361 	0x5f686361
    6e2c:	65666173 	0x65666173
    6e30:	736f7028 	0x736f7028
    6e34:	682c6e2c 	0x682c6e2c
    6e38:	29646165 	slti	a0,t3,24933
    6e3c:	726f6620 	0x726f6620
    6e40:	6f702820 	0x6f702820
    6e44:	203d2073 	addi	sp,at,8307
    6e48:	61656828 	0x61656828
    6e4c:	3e2d2964 	0x3e2d2964
    6e50:	7478656e 	jalx	1e195b8 <foobar+0x1e1936c>
    6e54:	206e202c 	addi	t6,v1,8236
    6e58:	6f70203d 	0x6f70203d
    6e5c:	6e3e2d73 	0x6e3e2d73
    6e60:	3b747865 	xori	s4,k1,0x7865
    6e64:	736f7020 	0x736f7020
    6e68:	203d2120 	addi	sp,at,8480
    6e6c:	61656828 	0x61656828
    6e70:	203b2964 	addi	k1,at,10596
    6e74:	20736f70 	addi	s3,v1,28528
    6e78:	2c6e203d 	sltiu	t6,v1,8253
    6e7c:	3d206e20 	0x3d206e20
    6e80:	736f7020 	0x736f7020
    6e84:	656e3e2d 	0x656e3e2d
    6e88:	00297478 	0x297478
    6e8c:	6c029e01 	0x6c029e01
    6e90:	5f747369 	0x5f747369
    6e94:	5f726f66 	0x5f726f66
    6e98:	68636165 	0x68636165
    6e9c:	746e655f 	jalx	1b9957c <foobar+0x1b99330>
    6ea0:	70287972 	0x70287972
    6ea4:	682c736f 	0x682c736f
    6ea8:	2c646165 	sltiu	a0,v1,24933
    6eac:	626d656d 	0x626d656d
    6eb0:	20297265 	addi	t1,at,29285
    6eb4:	20726f66 	addi	s2,v1,28518
    6eb8:	736f7028 	0x736f7028
    6ebc:	6c203d20 	0x6c203d20
    6ec0:	5f747369 	0x5f747369
    6ec4:	72746e65 	0x72746e65
    6ec8:	68282879 	0x68282879
    6ecc:	29646165 	slti	a0,t3,24933
    6ed0:	656e3e2d 	0x656e3e2d
    6ed4:	202c7478 	addi	t4,at,29816
    6ed8:	65707974 	0x65707974
    6edc:	2a28666f 	slti	t0,s1,26223
    6ee0:	29736f70 	slti	s3,t3,28528
    6ee4:	656d202c 	0x656d202c
    6ee8:	7265626d 	0x7265626d
    6eec:	26203b29 	addiu	zero,s1,15145
    6ef0:	2d736f70 	sltiu	s3,t3,28528
    6ef4:	6d656d3e 	0x6d656d3e
    6ef8:	20726562 	addi	s2,v1,25954
    6efc:	28203d21 	slti	zero,at,15649
    6f00:	64616568 	0x64616568
    6f04:	70203b29 	0x70203b29
    6f08:	3d20736f 	0x3d20736f
    6f0c:	73696c20 	0x73696c20
    6f10:	6e655f74 	0x6e655f74
    6f14:	28797274 	slti	t9,v1,29300
    6f18:	2d736f70 	sltiu	s3,t3,28528
    6f1c:	6d656d3e 	0x6d656d3e
    6f20:	2e726562 	sltiu	s2,s3,25954
    6f24:	7478656e 	jalx	1e195b8 <foobar+0x1e1936c>
    6f28:	7974202c 	0x7974202c
    6f2c:	666f6570 	0x666f6570
    6f30:	6f702a28 	0x6f702a28
    6f34:	202c2973 	addi	t4,at,10611
    6f38:	626d656d 	0x626d656d
    6f3c:	29297265 	slti	t1,t1,29285
    6f40:	02a90100 	0x2a90100
    6f44:	7473696c 	jalx	1cda5b0 <foobar+0x1cda364>
    6f48:	726f665f 	0x726f665f
    6f4c:	6361655f 	0x6361655f
    6f50:	6e655f68 	0x6e655f68
    6f54:	5f797274 	0x5f797274
    6f58:	65766572 	0x65766572
    6f5c:	28657372 	slti	a1,v1,29554
    6f60:	2c736f70 	sltiu	s3,v1,28528
    6f64:	64616568 	0x64616568
    6f68:	6d656d2c 	0x6d656d2c
    6f6c:	29726562 	slti	s2,t3,25954
    6f70:	726f6620 	0x726f6620
    6f74:	6f702820 	0x6f702820
    6f78:	203d2073 	addi	sp,at,8307
    6f7c:	7473696c 	jalx	1cda5b0 <foobar+0x1cda364>
    6f80:	746e655f 	jalx	1b9957c <foobar+0x1b99330>
    6f84:	28287972 	slti	t0,at,31090
    6f88:	64616568 	0x64616568
    6f8c:	703e2d29 	0x703e2d29
    6f90:	2c766572 	sltiu	s6,v1,25970
    6f94:	70797420 	0x70797420
    6f98:	28666f65 	slti	a2,v1,28517
    6f9c:	736f702a 	0x736f702a
    6fa0:	6d202c29 	0x6d202c29
    6fa4:	65626d65 	0x65626d65
    6fa8:	203b2972 	addi	k1,at,10610
    6fac:	736f7026 	0x736f7026
    6fb0:	656d3e2d 	0x656d3e2d
    6fb4:	7265626d 	0x7265626d
    6fb8:	203d2120 	addi	sp,at,8480
    6fbc:	61656828 	0x61656828
    6fc0:	203b2964 	addi	k1,at,10596
    6fc4:	20736f70 	addi	s3,v1,28528
    6fc8:	696c203d 	0x696c203d
    6fcc:	655f7473 	0x655f7473
    6fd0:	7972746e 	0x7972746e
    6fd4:	736f7028 	0x736f7028
    6fd8:	656d3e2d 	0x656d3e2d
    6fdc:	7265626d 	0x7265626d
    6fe0:	6572702e 	0x6572702e
    6fe4:	74202c76 	jalx	80b1d8 <foobar+0x80af8c>
    6fe8:	6f657079 	0x6f657079
    6fec:	702a2866 	0x702a2866
    6ff0:	2c29736f 	sltiu	t1,at,29551
    6ff4:	6d656d20 	0x6d656d20
    6ff8:	29726562 	slti	s2,t3,25954
    6ffc:	b5010029 	0xb5010029
    7000:	73696c02 	0x73696c02
    7004:	72705f74 	0x72705f74
    7008:	72617065 	0x72617065
    700c:	6e655f65 	0x6e655f65
    7010:	28797274 	slti	t9,v1,29300
    7014:	2c736f70 	sltiu	s3,v1,28528
    7018:	64616568 	0x64616568
    701c:	6d656d2c 	0x6d656d2c
    7020:	29726562 	slti	s2,t3,25954
    7024:	70282820 	0x70282820
    7028:	2029736f 	addi	t1,at,29551
    702c:	203a203f 	addi	k0,at,8255
    7030:	7473696c 	jalx	1cda5b0 <foobar+0x1cda364>
    7034:	746e655f 	jalx	1b9957c <foobar+0x1b99330>
    7038:	68287972 	0x68287972
    703c:	2c646165 	sltiu	a0,v1,24933
    7040:	70797420 	0x70797420
    7044:	28666f65 	slti	a2,v1,28517
    7048:	736f702a 	0x736f702a
    704c:	6d202c29 	0x6d202c29
    7050:	65626d65 	0x65626d65
    7054:	00292972 	0x292972
    7058:	6c02bf01 	0x6c02bf01
    705c:	5f747369 	0x5f747369
    7060:	5f726f66 	0x5f726f66
    7064:	68636165 	0x68636165
    7068:	746e655f 	jalx	1b9957c <foobar+0x1b99330>
    706c:	635f7972 	0x635f7972
    7070:	69746e6f 	0x69746e6f
    7074:	2865756e 	slti	a1,v1,30062
    7078:	2c736f70 	sltiu	s3,v1,28528
    707c:	64616568 	0x64616568
    7080:	6d656d2c 	0x6d656d2c
    7084:	29726562 	slti	s2,t3,25954
    7088:	726f6620 	0x726f6620
    708c:	6f702820 	0x6f702820
    7090:	203d2073 	addi	sp,at,8307
    7094:	7473696c 	jalx	1cda5b0 <foobar+0x1cda364>
    7098:	746e655f 	jalx	1b9957c <foobar+0x1b99330>
    709c:	70287972 	0x70287972
    70a0:	3e2d736f 	0x3e2d736f
    70a4:	626d656d 	0x626d656d
    70a8:	6e2e7265 	0x6e2e7265
    70ac:	2c747865 	sltiu	s4,v1,30821
    70b0:	70797420 	0x70797420
    70b4:	28666f65 	slti	a2,v1,28517
    70b8:	736f702a 	0x736f702a
    70bc:	6d202c29 	0x6d202c29
    70c0:	65626d65 	0x65626d65
    70c4:	203b2972 	addi	k1,at,10610
    70c8:	736f7026 	0x736f7026
    70cc:	656d3e2d 	0x656d3e2d
    70d0:	7265626d 	0x7265626d
    70d4:	203d2120 	addi	sp,at,8480
    70d8:	61656828 	0x61656828
    70dc:	203b2964 	addi	k1,at,10596
    70e0:	20736f70 	addi	s3,v1,28528
    70e4:	696c203d 	0x696c203d
    70e8:	655f7473 	0x655f7473
    70ec:	7972746e 	0x7972746e
    70f0:	736f7028 	0x736f7028
    70f4:	656d3e2d 	0x656d3e2d
    70f8:	7265626d 	0x7265626d
    70fc:	78656e2e 	0x78656e2e
    7100:	74202c74 	jalx	80b1d0 <foobar+0x80af84>
    7104:	6f657079 	0x6f657079
    7108:	702a2866 	0x702a2866
    710c:	2c29736f 	sltiu	t1,at,29551
    7110:	6d656d20 	0x6d656d20
    7114:	29726562 	slti	s2,t3,25954
    7118:	cb010029 	lwc2	$1,41(t8)
    711c:	73696c02 	0x73696c02
    7120:	6f665f74 	0x6f665f74
    7124:	61655f72 	0x61655f72
    7128:	655f6863 	0x655f6863
    712c:	7972746e 	0x7972746e
    7130:	6661735f 	0x6661735f
    7134:	6f702865 	0x6f702865
    7138:	2c6e2c73 	sltiu	t6,v1,11379
    713c:	64616568 	0x64616568
    7140:	6d656d2c 	0x6d656d2c
    7144:	29726562 	slti	s2,t3,25954
    7148:	726f6620 	0x726f6620
    714c:	6f702820 	0x6f702820
    7150:	203d2073 	addi	sp,at,8307
    7154:	7473696c 	jalx	1cda5b0 <foobar+0x1cda364>
    7158:	746e655f 	jalx	1b9957c <foobar+0x1b99330>
    715c:	28287972 	slti	t0,at,31090
    7160:	64616568 	0x64616568
    7164:	6e3e2d29 	0x6e3e2d29
    7168:	2c747865 	sltiu	s4,v1,30821
    716c:	70797420 	0x70797420
    7170:	28666f65 	slti	a2,v1,28517
    7174:	736f702a 	0x736f702a
    7178:	6d202c29 	0x6d202c29
    717c:	65626d65 	0x65626d65
    7180:	202c2972 	addi	t4,at,10610
    7184:	203d206e 	addi	sp,at,8302
    7188:	7473696c 	jalx	1cda5b0 <foobar+0x1cda364>
    718c:	746e655f 	jalx	1b9957c <foobar+0x1b99330>
    7190:	70287972 	0x70287972
    7194:	3e2d736f 	0x3e2d736f
    7198:	626d656d 	0x626d656d
    719c:	6e2e7265 	0x6e2e7265
    71a0:	2c747865 	sltiu	s4,v1,30821
    71a4:	70797420 	0x70797420
    71a8:	28666f65 	slti	a2,v1,28517
    71ac:	736f702a 	0x736f702a
    71b0:	6d202c29 	0x6d202c29
    71b4:	65626d65 	0x65626d65
    71b8:	203b2972 	addi	k1,at,10610
    71bc:	736f7026 	0x736f7026
    71c0:	656d3e2d 	0x656d3e2d
    71c4:	7265626d 	0x7265626d
    71c8:	203d2120 	addi	sp,at,8480
    71cc:	61656828 	0x61656828
    71d0:	203b2964 	addi	k1,at,10596
    71d4:	20736f70 	addi	s3,v1,28528
    71d8:	2c6e203d 	sltiu	t6,v1,8253
    71dc:	3d206e20 	0x3d206e20
    71e0:	73696c20 	0x73696c20
    71e4:	6e655f74 	0x6e655f74
    71e8:	28797274 	slti	t9,v1,29300
    71ec:	6d3e2d6e 	0x6d3e2d6e
    71f0:	65626d65 	0x65626d65
    71f4:	656e2e72 	0x656e2e72
    71f8:	202c7478 	addi	t4,at,29816
    71fc:	65707974 	0x65707974
    7200:	2a28666f 	slti	t0,s1,26223
    7204:	202c296e 	addi	t4,at,10606
    7208:	626d656d 	0x626d656d
    720c:	29297265 	slti	t1,t1,29285
    7210:	02d90100 	0x2d90100
    7214:	7473696c 	jalx	1cda5b0 <foobar+0x1cda364>
    7218:	726f665f 	0x726f665f
    721c:	6361655f 	0x6361655f
    7220:	6e655f68 	0x6e655f68
    7224:	5f797274 	0x5f797274
    7228:	65666173 	0x65666173
    722c:	6e6f635f 	0x6e6f635f
    7230:	756e6974 	jalx	5b9a5d0 <foobar+0x5b9a384>
    7234:	6f702865 	0x6f702865
    7238:	2c6e2c73 	sltiu	t6,v1,11379
    723c:	64616568 	0x64616568
    7240:	6d656d2c 	0x6d656d2c
    7244:	29726562 	slti	s2,t3,25954
    7248:	726f6620 	0x726f6620
    724c:	6f702820 	0x6f702820
    7250:	203d2073 	addi	sp,at,8307
    7254:	7473696c 	jalx	1cda5b0 <foobar+0x1cda364>
    7258:	746e655f 	jalx	1b9957c <foobar+0x1b99330>
    725c:	70287972 	0x70287972
    7260:	3e2d736f 	0x3e2d736f
    7264:	626d656d 	0x626d656d
    7268:	6e2e7265 	0x6e2e7265
    726c:	2c747865 	sltiu	s4,v1,30821
    7270:	70797420 	0x70797420
    7274:	28666f65 	slti	a2,v1,28517
    7278:	736f702a 	0x736f702a
    727c:	6d202c29 	0x6d202c29
    7280:	65626d65 	0x65626d65
    7284:	202c2972 	addi	t4,at,10610
    7288:	203d206e 	addi	sp,at,8302
    728c:	7473696c 	jalx	1cda5b0 <foobar+0x1cda364>
    7290:	746e655f 	jalx	1b9957c <foobar+0x1b99330>
    7294:	70287972 	0x70287972
    7298:	3e2d736f 	0x3e2d736f
    729c:	626d656d 	0x626d656d
    72a0:	6e2e7265 	0x6e2e7265
    72a4:	2c747865 	sltiu	s4,v1,30821
    72a8:	70797420 	0x70797420
    72ac:	28666f65 	slti	a2,v1,28517
    72b0:	736f702a 	0x736f702a
    72b4:	6d202c29 	0x6d202c29
    72b8:	65626d65 	0x65626d65
    72bc:	203b2972 	addi	k1,at,10610
    72c0:	736f7026 	0x736f7026
    72c4:	656d3e2d 	0x656d3e2d
    72c8:	7265626d 	0x7265626d
    72cc:	203d2120 	addi	sp,at,8480
    72d0:	61656828 	0x61656828
    72d4:	203b2964 	addi	k1,at,10596
    72d8:	20736f70 	addi	s3,v1,28528
    72dc:	2c6e203d 	sltiu	t6,v1,8253
    72e0:	3d206e20 	0x3d206e20
    72e4:	73696c20 	0x73696c20
    72e8:	6e655f74 	0x6e655f74
    72ec:	28797274 	slti	t9,v1,29300
    72f0:	6d3e2d6e 	0x6d3e2d6e
    72f4:	65626d65 	0x65626d65
    72f8:	656e2e72 	0x656e2e72
    72fc:	202c7478 	addi	t4,at,29816
    7300:	65707974 	0x65707974
    7304:	2a28666f 	slti	t0,s1,26223
    7308:	202c296e 	addi	t4,at,10606
    730c:	626d656d 	0x626d656d
    7310:	29297265 	slti	t1,t1,29285
    7314:	02e70100 	0x2e70100
    7318:	7473696c 	jalx	1cda5b0 <foobar+0x1cda364>
    731c:	726f665f 	0x726f665f
    7320:	6361655f 	0x6361655f
    7324:	6e655f68 	0x6e655f68
    7328:	5f797274 	0x5f797274
    732c:	65666173 	0x65666173
    7330:	7665725f 	jalx	995c97c <foobar+0x995c730>
    7334:	65737265 	0x65737265
    7338:	736f7028 	0x736f7028
    733c:	682c6e2c 	0x682c6e2c
    7340:	2c646165 	sltiu	a0,v1,24933
    7344:	626d656d 	0x626d656d
    7348:	20297265 	addi	t1,at,29285
    734c:	20726f66 	addi	s2,v1,28518
    7350:	736f7028 	0x736f7028
    7354:	6c203d20 	0x6c203d20
    7358:	5f747369 	0x5f747369
    735c:	72746e65 	0x72746e65
    7360:	68282879 	0x68282879
    7364:	29646165 	slti	a0,t3,24933
    7368:	72703e2d 	0x72703e2d
    736c:	202c7665 	addi	t4,at,30309
    7370:	65707974 	0x65707974
    7374:	2a28666f 	slti	t0,s1,26223
    7378:	29736f70 	slti	s3,t3,28528
    737c:	656d202c 	0x656d202c
    7380:	7265626d 	0x7265626d
    7384:	6e202c29 	0x6e202c29
    7388:	6c203d20 	0x6c203d20
    738c:	5f747369 	0x5f747369
    7390:	72746e65 	0x72746e65
    7394:	6f702879 	0x6f702879
    7398:	6d3e2d73 	0x6d3e2d73
    739c:	65626d65 	0x65626d65
    73a0:	72702e72 	0x72702e72
    73a4:	202c7665 	addi	t4,at,30309
    73a8:	65707974 	0x65707974
    73ac:	2a28666f 	slti	t0,s1,26223
    73b0:	29736f70 	slti	s3,t3,28528
    73b4:	656d202c 	0x656d202c
    73b8:	7265626d 	0x7265626d
    73bc:	26203b29 	addiu	zero,s1,15145
    73c0:	2d736f70 	sltiu	s3,t3,28528
    73c4:	6d656d3e 	0x6d656d3e
    73c8:	20726562 	addi	s2,v1,25954
    73cc:	28203d21 	slti	zero,at,15649
    73d0:	64616568 	0x64616568
    73d4:	70203b29 	0x70203b29
    73d8:	3d20736f 	0x3d20736f
    73dc:	202c6e20 	addi	t4,at,28192
    73e0:	203d206e 	addi	sp,at,8302
    73e4:	7473696c 	jalx	1cda5b0 <foobar+0x1cda364>
    73e8:	746e655f 	jalx	1b9957c <foobar+0x1b99330>
    73ec:	6e287972 	0x6e287972
    73f0:	656d3e2d 	0x656d3e2d
    73f4:	7265626d 	0x7265626d
    73f8:	6572702e 	0x6572702e
    73fc:	74202c76 	jalx	80b1d8 <foobar+0x80af8c>
    7400:	6f657079 	0x6f657079
    7404:	6e2a2866 	0x6e2a2866
    7408:	6d202c29 	0x6d202c29
    740c:	65626d65 	0x65626d65
    7410:	00292972 	0x292972
    7414:	4802ff01 	0x4802ff01
    7418:	5453494c 	0x5453494c
    741c:	4145485f 	0x4145485f
    7420:	4e495f44 	c3	0x495f44
    7424:	7b205449 	0x7b205449
    7428:	69662e20 	0x69662e20
    742c:	20747372 	addi	s4,v1,29554
    7430:	554e203d 	0x554e203d
    7434:	7d204c4c 	0x7d204c4c
    7438:	03800100 	0x3800100
    743c:	53494c48 	0x53494c48
    7440:	45485f54 	0x45485f54
    7444:	6e284441 	0x6e284441
    7448:	29656d61 	slti	a1,t3,28001
    744c:	72747320 	0x72747320
    7450:	20746375 	addi	s4,v1,25461
    7454:	73696c68 	0x73696c68
    7458:	65685f74 	0x65685f74
    745c:	6e206461 	0x6e206461
    7460:	20656d61 	addi	a1,v1,28001
    7464:	207b203d 	addi	k1,v1,8253
    7468:	7269662e 	0x7269662e
    746c:	3d207473 	0x3d207473
    7470:	4c554e20 	0x4c554e20
    7474:	007d204c 	syscall	0x1f481
    7478:	49038101 	0x49038101
    747c:	5f54494e 	0x5f54494e
    7480:	53494c48 	0x53494c48
    7484:	45485f54 	0x45485f54
    7488:	70284441 	0x70284441
    748c:	20297274 	addi	t1,at,29300
    7490:	74702828 	jalx	1c0a0a0 <foobar+0x1c09e54>
    7494:	3e2d2972 	0x3e2d2972
    7498:	73726966 	0x73726966
    749c:	203d2074 	addi	sp,at,8308
    74a0:	4c4c554e 	0x4c4c554e
    74a4:	82010029 	lb	at,41(s0)
    74a8:	494e4903 	0x494e4903
    74ac:	4c485f54 	0x4c485f54
    74b0:	5f545349 	0x5f545349
    74b4:	45444f4e 	0x45444f4e
    74b8:	72747028 	0x72747028
    74bc:	28282029 	slti	t0,at,8233
    74c0:	29727470 	slti	s2,t3,29808
    74c4:	656e3e2d 	0x656e3e2d
    74c8:	3d207478 	0x3d207478
    74cc:	4c554e20 	0x4c554e20
    74d0:	28202c4c 	slti	zero,at,11340
    74d4:	29727470 	slti	s2,t3,29808
    74d8:	70703e2d 	0x70703e2d
    74dc:	20766572 	addi	s6,v1,25970
    74e0:	554e203d 	0x554e203d
    74e4:	00294c4c 	syscall	0xa531
    74e8:	6803ca01 	0x6803ca01
    74ec:	7473696c 	jalx	1cda5b0 <foobar+0x1cda364>
    74f0:	746e655f 	jalx	1b9957c <foobar+0x1b99330>
    74f4:	70287972 	0x70287972
    74f8:	742c7274 	jalx	b1c9d0 <foobar+0xb1c784>
    74fc:	2c657079 	sltiu	a1,v1,28793
    7500:	626d656d 	0x626d656d
    7504:	20297265 	addi	t1,at,29285
    7508:	746e6f63 	jalx	1b9bd8c <foobar+0x1b9bb40>
    750c:	656e6961 	0x656e6961
    7510:	666f5f72 	0x666f5f72
    7514:	72747028 	0x72747028
    7518:	7079742c 	0x7079742c
    751c:	656d2c65 	0x656d2c65
    7520:	7265626d 	0x7265626d
    7524:	cc010029 	lwc3	$1,41(zero)
    7528:	696c6803 	0x696c6803
    752c:	665f7473 	0x665f7473
    7530:	655f726f 	0x655f726f
    7534:	28686361 	slti	t0,v1,25441
    7538:	2c736f70 	sltiu	s3,v1,28528
    753c:	64616568 	0x64616568
    7540:	6f662029 	0x6f662029
    7544:	70282072 	0x70282072
    7548:	3d20736f 	0x3d20736f
    754c:	65682820 	0x65682820
    7550:	2d296461 	sltiu	t1,t1,25697
    7554:	7269663e 	0x7269663e
    7558:	203b7473 	addi	k1,at,29811
    755c:	20736f70 	addi	s3,v1,28528
    7560:	28202626 	slti	zero,at,9766
    7564:	7270207b 	0x7270207b
    7568:	74656665 	jalx	1959994 <foobar+0x1959748>
    756c:	70286863 	0x70286863
    7570:	3e2d736f 	0x3e2d736f
    7574:	7478656e 	jalx	1e195b8 <foobar+0x1e1936c>
    7578:	31203b29 	andi	zero,t1,0x3b29
    757c:	297d203b 	slti	sp,t3,8251
    7580:	6f70203b 	0x6f70203b
    7584:	203d2073 	addi	sp,at,8307
    7588:	2d736f70 	sltiu	s3,t3,28528
    758c:	78656e3e 	0x78656e3e
    7590:	01002974 	0x1002974
    7594:	6c6803d0 	0x6c6803d0
    7598:	5f747369 	0x5f747369
    759c:	5f726f66 	0x5f726f66
    75a0:	68636165 	0x68636165
    75a4:	6661735f 	0x6661735f
    75a8:	6f702865 	0x6f702865
    75ac:	2c6e2c73 	sltiu	t6,v1,11379
    75b0:	64616568 	0x64616568
    75b4:	6f662029 	0x6f662029
    75b8:	70282072 	0x70282072
    75bc:	3d20736f 	0x3d20736f
    75c0:	65682820 	0x65682820
    75c4:	2d296461 	sltiu	t1,t1,25697
    75c8:	7269663e 	0x7269663e
    75cc:	203b7473 	addi	k1,at,29811
    75d0:	20736f70 	addi	s3,v1,28528
    75d4:	28202626 	slti	zero,at,9766
    75d8:	206e207b 	addi	t6,v1,8315
    75dc:	6f70203d 	0x6f70203d
    75e0:	6e3e2d73 	0x6e3e2d73
    75e4:	3b747865 	xori	s4,k1,0x7865
    75e8:	203b3120 	addi	k1,at,12576
    75ec:	203b297d 	addi	k1,at,10621
    75f0:	20736f70 	addi	s3,v1,28528
    75f4:	296e203d 	slti	t6,t3,8253
    75f8:	03db0100 	0x3db0100
    75fc:	73696c68 	0x73696c68
    7600:	6f665f74 	0x6f665f74
    7604:	61655f72 	0x61655f72
    7608:	655f6863 	0x655f6863
    760c:	7972746e 	0x7972746e
    7610:	6f707428 	0x6f707428
    7614:	6f702c73 	0x6f702c73
    7618:	65682c73 	0x65682c73
    761c:	6d2c6461 	0x6d2c6461
    7620:	65626d65 	0x65626d65
    7624:	66202972 	0x66202972
    7628:	2820726f 	slti	zero,at,29295
    762c:	20736f70 	addi	s3,v1,28528
    7630:	6828203d 	0x6828203d
    7634:	29646165 	slti	a0,t3,24933
    7638:	69663e2d 	0x69663e2d
    763c:	3b747372 	xori	s4,k1,0x7372
    7640:	736f7020 	0x736f7020
    7644:	20262620 	addi	a2,at,9760
    7648:	70207b28 	0x70207b28
    764c:	65666572 	0x65666572
    7650:	28686374 	slti	t0,v1,25460
    7654:	2d736f70 	sltiu	s3,t3,28528
    7658:	78656e3e 	0x78656e3e
    765c:	203b2974 	addi	k1,at,10612
    7660:	297d3b31 	slti	sp,t3,15153
    7664:	20262620 	addi	a2,at,9760
    7668:	74207b28 	jalx	81eca0 <foobar+0x81ea54>
    766c:	20736f70 	addi	s3,v1,28528
    7670:	6c68203d 	0x6c68203d
    7674:	5f747369 	0x5f747369
    7678:	72746e65 	0x72746e65
    767c:	6f702879 	0x6f702879
    7680:	74202c73 	jalx	80b1cc <foobar+0x80af80>
    7684:	6f657079 	0x6f657079
    7688:	742a2866 	jalx	a8a198 <foobar+0xa89f4c>
    768c:	29736f70 	slti	s3,t3,28528
    7690:	656d202c 	0x656d202c
    7694:	7265626d 	0x7265626d
    7698:	31203b29 	andi	zero,t1,0x3b29
    769c:	3b297d3b 	xori	t1,t9,0x7d3b
    76a0:	736f7020 	0x736f7020
    76a4:	70203d20 	0x70203d20
    76a8:	3e2d736f 	0x3e2d736f
    76ac:	7478656e 	jalx	1e195b8 <foobar+0x1e1936c>
    76b0:	e7010029 	swc1	$f1,41(t8)
    76b4:	696c6803 	0x696c6803
    76b8:	665f7473 	0x665f7473
    76bc:	655f726f 	0x655f726f
    76c0:	5f686361 	0x5f686361
    76c4:	72746e65 	0x72746e65
    76c8:	6f635f79 	0x6f635f79
    76cc:	6e69746e 	0x6e69746e
    76d0:	74286575 	jalx	a195d4 <foobar+0xa19388>
    76d4:	2c736f70 	sltiu	s3,v1,28528
    76d8:	2c736f70 	sltiu	s3,v1,28528
    76dc:	626d656d 	0x626d656d
    76e0:	20297265 	addi	t1,at,29285
    76e4:	20726f66 	addi	s2,v1,28518
    76e8:	736f7028 	0x736f7028
    76ec:	28203d20 	slti	zero,at,15648
    76f0:	29736f70 	slti	s3,t3,28528
    76f4:	656e3e2d 	0x656e3e2d
    76f8:	203b7478 	addi	k1,at,29816
    76fc:	20736f70 	addi	s3,v1,28528
    7700:	28202626 	slti	zero,at,9766
    7704:	7270207b 	0x7270207b
    7708:	74656665 	jalx	1959994 <foobar+0x1959748>
    770c:	70286863 	0x70286863
    7710:	3e2d736f 	0x3e2d736f
    7714:	7478656e 	jalx	1e195b8 <foobar+0x1e1936c>
    7718:	31203b29 	andi	zero,t1,0x3b29
    771c:	20297d3b 	addi	t1,at,32059
    7720:	28202626 	slti	zero,at,9766
    7724:	7074207b 	0x7074207b
    7728:	3d20736f 	0x3d20736f
    772c:	696c6820 	0x696c6820
    7730:	655f7473 	0x655f7473
    7734:	7972746e 	0x7972746e
    7738:	736f7028 	0x736f7028
    773c:	7974202c 	0x7974202c
    7740:	666f6570 	0x666f6570
    7744:	70742a28 	0x70742a28
    7748:	2c29736f 	sltiu	t1,at,29551
    774c:	6d656d20 	0x6d656d20
    7750:	29726562 	slti	s2,t3,25954
    7754:	3b31203b 	xori	s1,t9,0x203b
    7758:	203b297d 	addi	k1,at,10621
    775c:	20736f70 	addi	s3,v1,28528
    7760:	6f70203d 	0x6f70203d
    7764:	6e3e2d73 	0x6e3e2d73
    7768:	29747865 	slti	s4,t3,30821
    776c:	03f30100 	0x3f30100
    7770:	73696c68 	0x73696c68
    7774:	6f665f74 	0x6f665f74
    7778:	61655f72 	0x61655f72
    777c:	655f6863 	0x655f6863
    7780:	7972746e 	0x7972746e
    7784:	6f72665f 	0x6f72665f
    7788:	7074286d 	0x7074286d
    778c:	702c736f 	0x702c736f
    7790:	6d2c736f 	0x6d2c736f
    7794:	65626d65 	0x65626d65
    7798:	66202972 	0x66202972
    779c:	2820726f 	slti	zero,at,29295
    77a0:	6f70203b 	0x6f70203b
    77a4:	26262073 	addiu	a2,s1,8307
    77a8:	207b2820 	addi	k1,v1,10272
    77ac:	66657270 	0x66657270
    77b0:	68637465 	0x68637465
    77b4:	736f7028 	0x736f7028
    77b8:	656e3e2d 	0x656e3e2d
    77bc:	3b297478 	xori	t1,t9,0x7478
    77c0:	7d3b3120 	0x7d3b3120
    77c4:	26262029 	addiu	a2,s1,8233
    77c8:	207b2820 	addi	k1,v1,10272
    77cc:	736f7074 	0x736f7074
    77d0:	68203d20 	0x68203d20
    77d4:	7473696c 	jalx	1cda5b0 <foobar+0x1cda364>
    77d8:	746e655f 	jalx	1b9957c <foobar+0x1b99330>
    77dc:	70287972 	0x70287972
    77e0:	202c736f 	addi	t4,at,29551
    77e4:	65707974 	0x65707974
    77e8:	2a28666f 	slti	t0,s1,26223
    77ec:	736f7074 	0x736f7074
    77f0:	6d202c29 	0x6d202c29
    77f4:	65626d65 	0x65626d65
    77f8:	203b2972 	addi	k1,at,10610
    77fc:	297d3b31 	slti	sp,t3,15153
    7800:	6f70203b 	0x6f70203b
    7804:	203d2073 	addi	sp,at,8307
    7808:	2d736f70 	sltiu	s3,t3,28528
    780c:	78656e3e 	0x78656e3e
    7810:	01002974 	0x1002974
    7814:	6c680480 	0x6c680480
    7818:	5f747369 	0x5f747369
    781c:	5f726f66 	0x5f726f66
    7820:	68636165 	0x68636165
    7824:	746e655f 	jalx	1b9957c <foobar+0x1b99330>
    7828:	735f7972 	0x735f7972
    782c:	28656661 	slti	a1,v1,26209
    7830:	736f7074 	0x736f7074
    7834:	736f702c 	0x736f702c
    7838:	682c6e2c 	0x682c6e2c
    783c:	2c646165 	sltiu	a0,v1,24933
    7840:	626d656d 	0x626d656d
    7844:	20297265 	addi	t1,at,29285
    7848:	20726f66 	addi	s2,v1,28518
    784c:	736f7028 	0x736f7028
    7850:	28203d20 	slti	zero,at,15648
    7854:	64616568 	0x64616568
    7858:	663e2d29 	0x663e2d29
    785c:	74737269 	jalx	1cdc9a4 <foobar+0x1cdc758>
    7860:	6f70203b 	0x6f70203b
    7864:	26262073 	addiu	a2,s1,8307
    7868:	207b2820 	addi	k1,v1,10272
    786c:	203d206e 	addi	sp,at,8302
    7870:	2d736f70 	sltiu	s3,t3,28528
    7874:	78656e3e 	0x78656e3e
    7878:	31203b74 	andi	zero,t1,0x3b74
    787c:	297d203b 	slti	sp,t3,8251
    7880:	20262620 	addi	a2,at,9760
    7884:	74207b28 	jalx	81eca0 <foobar+0x81ea54>
    7888:	20736f70 	addi	s3,v1,28528
    788c:	6c68203d 	0x6c68203d
    7890:	5f747369 	0x5f747369
    7894:	72746e65 	0x72746e65
    7898:	6f702879 	0x6f702879
    789c:	74202c73 	jalx	80b1cc <foobar+0x80af80>
    78a0:	6f657079 	0x6f657079
    78a4:	742a2866 	jalx	a8a198 <foobar+0xa89f4c>
    78a8:	29736f70 	slti	s3,t3,28528
    78ac:	656d202c 	0x656d202c
    78b0:	7265626d 	0x7265626d
    78b4:	31203b29 	andi	zero,t1,0x3b29
    78b8:	3b297d3b 	xori	t1,t9,0x7d3b
    78bc:	736f7020 	0x736f7020
    78c0:	6e203d20 	0x6e203d20
    78c4:	04040029 	0x4040029
    78c8:	300c0304 	andi	t4,zero,0x304
    78cc:	6f6c0801 	0x6f6c0801
    78d0:	646f6370 	0x646f6370
    78d4:	685f7365 	0x685f7365
    78d8:	0e010020 	jal	8040080 <foobar+0x803fe34>
    78dc:	74736163 	jalx	1cd858c <foobar+0x1cd8340>
    78e0:	652c7428 	0x652c7428
    78e4:	20297078 	addi	t1,at,28792
    78e8:	29742828 	slti	s4,t3,10280
    78ec:	70786528 	0x70786528
    78f0:	01002929 	0x1002929
    78f4:	41554c14 	0x41554c14
    78f8:	4f4e545f 	c3	0x14e545f
    78fc:	2820454e 	slti	zero,at,17742
    7900:	0029312d 	0x29312d
    7904:	554c1601 	0x554c1601
    7908:	4e545f41 	c3	0x545f41
    790c:	30204c49 	andi	zero,at,0x4c49
    7910:	4c170100 	0x4c170100
    7914:	545f4155 	0x545f4155
    7918:	4c4f4f42 	0x4c4f4f42
    791c:	204e4145 	addi	t6,v0,16709
    7920:	18010031 	0x18010031
    7924:	5f41554c 	0x5f41554c
    7928:	47494c54 	c1	0x1494c54
    792c:	53555448 	0x53555448
    7930:	41445245 	0x41445245
    7934:	32204154 	andi	zero,s1,0x4154
    7938:	4c190100 	0x4c190100
    793c:	545f4155 	0x545f4155
    7940:	424d554e 	c0	0x4d554e
    7944:	33205245 	andi	zero,t9,0x5245
    7948:	4c1a0100 	0x4c1a0100
    794c:	545f4155 	0x545f4155
    7950:	49525453 	0x49525453
    7954:	3420474e 	ori	zero,at,0x474e
    7958:	4c1b0100 	0x4c1b0100
    795c:	545f4155 	0x545f4155
    7960:	4c424154 	0x4c424154
    7964:	00352045 	0x352045
    7968:	554c1c01 	0x554c1c01
    796c:	46545f41 	c1	0x545f41
    7970:	54434e55 	0x54434e55
    7974:	204e4f49 	addi	t6,v0,20297
    7978:	1d010036 	0x1d010036
    797c:	5f41554c 	0x5f41554c
    7980:	45535554 	0x45535554
    7984:	54414452 	0x54414452
    7988:	00372041 	0x372041
    798c:	554c1e01 	0x554c1e01
    7990:	54545f41 	0x54545f41
    7994:	41455248 	0x41455248
    7998:	00382044 	0x382044
    799c:	554c2001 	0x554c2001
    79a0:	554e5f41 	0x554e5f41
    79a4:	4741544d 	c1	0x141544d
    79a8:	00392053 	0x392053
    79ac:	414d2201 	0x414d2201
    79b0:	4e495f58 	c3	0x495f58
    79b4:	49282054 	0x49282054
    79b8:	4d5f544e 	0x4d5f544e
    79bc:	322d5841 	andi	t5,s1,0x5841
    79c0:	2c010029 	sltiu	at,zero,41
    79c4:	4941554c 	0x4941554c
    79c8:	5449425f 	0x5449425f
    79cc:	544e4953 	0x544e4953
    79d0:	00363120 	0x363120
    79d4:	49535001 	0x49535001
    79d8:	435f455a 	c0	0x15f455a
    79dc:	01003920 	0x1003920
    79e0:	5a495351 	0x5a495351
    79e4:	20425f45 	addi	v0,v0,24389
    79e8:	52010039 	0x52010039
    79ec:	455a4953 	0x455a4953
    79f0:	2078425f 	addi	t8,v1,16991
    79f4:	5a495328 	0x5a495328
    79f8:	20435f45 	addi	v1,v0,24389
    79fc:	4953202b 	0x4953202b
    7a00:	425f455a 	c0	0x5f455a
    7a04:	53010029 	0x53010029
    7a08:	455a4953 	0x455a4953
    7a0c:	3820415f 	xori	zero,at,0x415f
    7a10:	53540100 	0x53540100
    7a14:	5f455a49 	0x5f455a49
    7a18:	28207841 	slti	zero,at,30785
    7a1c:	455a4953 	0x455a4953
    7a20:	2b20435f 	slti	zero,t9,17247
    7a24:	5a495320 	0x5a495320
    7a28:	20425f45 	addi	v0,v0,24389
    7a2c:	4953202b 	0x4953202b
    7a30:	415f455a 	0x415f455a
    7a34:	56010029 	0x56010029
    7a38:	455a4953 	0x455a4953
    7a3c:	20504f5f 	addi	s0,v0,20319
    7a40:	58010036 	0x58010036
    7a44:	5f534f50 	0x5f534f50
    7a48:	3020504f 	andi	zero,at,0x504f
    7a4c:	50590100 	0x50590100
    7a50:	415f534f 	0x415f534f
    7a54:	4f502820 	c3	0x1502820
    7a58:	504f5f53 	0x504f5f53
    7a5c:	53202b20 	0x53202b20
    7a60:	5f455a49 	0x5f455a49
    7a64:	0029504f 	0x29504f
    7a68:	4f505a01 	c3	0x1505a01
    7a6c:	20435f53 	addi	v1,v0,24403
    7a70:	534f5028 	0x534f5028
    7a74:	2b20415f 	slti	zero,t9,16735
    7a78:	5a495320 	0x5a495320
    7a7c:	29415f45 	slti	at,t2,24389
    7a80:	505b0100 	0x505b0100
    7a84:	425f534f 	c0	0x5f534f
    7a88:	4f502820 	c3	0x1502820
    7a8c:	20435f53 	addi	v1,v0,24403
    7a90:	4953202b 	0x4953202b
    7a94:	435f455a 	c0	0x15f455a
    7a98:	5c010029 	0x5c010029
    7a9c:	5f534f50 	0x5f534f50
    7aa0:	50207842 	0x50207842
    7aa4:	435f534f 	c0	0x15f534f
    7aa8:	505d0100 	0x505d0100
    7aac:	415f534f 	0x415f534f
    7ab0:	4f502078 	c3	0x1502078
    7ab4:	00415f53 	0x415f53
    7ab8:	414d6901 	0x414d6901
    7abc:	47524158 	c1	0x1524158
    7ac0:	2078425f 	addi	t8,v1,16991
    7ac4:	5f58414d 	0x5f58414d
    7ac8:	00544e49 	0x544e49
    7acc:	414d6a01 	0x414d6a01
    7ad0:	47524158 	c1	0x1524158
    7ad4:	7842735f 	0x7842735f
    7ad8:	58414d20 	0x58414d20
    7adc:	544e495f 	0x544e495f
    7ae0:	4d700100 	0x4d700100
    7ae4:	52415841 	0x52415841
    7ae8:	78415f47 	0x78415f47
    7aec:	58414d20 	0x58414d20
    7af0:	544e495f 	0x544e495f
    7af4:	4d740100 	0x4d740100
    7af8:	52415841 	0x52415841
    7afc:	20415f47 	addi	at,v0,24391
    7b00:	3c312828 	0x3c312828
    7b04:	5a49533c 	0x5a49533c
    7b08:	29415f45 	slti	at,t2,24389
    7b0c:	0029312d 	0x29312d
    7b10:	414d7501 	0x414d7501
    7b14:	47524158 	c1	0x1524158
    7b18:	2820425f 	slti	zero,at,16991
    7b1c:	3c3c3128 	0x3c3c3128
    7b20:	455a4953 	0x455a4953
    7b24:	2d29425f 	sltiu	t1,t1,16991
    7b28:	01002931 	0x1002931
    7b2c:	58414d76 	0x58414d76
    7b30:	5f475241 	0x5f475241
    7b34:	28282043 	slti	t0,at,8259
    7b38:	533c3c31 	0x533c3c31
    7b3c:	5f455a49 	0x5f455a49
    7b40:	312d2943 	andi	t5,t1,0x2943
    7b44:	7a010029 	0x7a010029
    7b48:	4b53414d 	c2	0x153414d
    7b4c:	2c6e2831 	sltiu	t6,v1,10289
    7b50:	28202970 	slti	zero,at,10608
    7b54:	28287e28 	slti	t0,at,32296
    7b58:	6e49287e 	0x6e49287e
    7b5c:	75727473 	jalx	5c9d1cc <foobar+0x5c9cf80>
    7b60:	6f697463 	0x6f697463
    7b64:	2930296e 	slti	s0,t1,10606
    7b68:	6e283c3c 	0x6e283c3c
    7b6c:	3c292929 	0x3c292929
    7b70:	2970283c 	slti	s0,t3,10300
    7b74:	7d010029 	0x7d010029
    7b78:	4b53414d 	c2	0x153414d
    7b7c:	2c6e2830 	sltiu	t6,v1,10288
    7b80:	28202970 	slti	zero,at,10608
    7b84:	53414d7e 	0x53414d7e
    7b88:	6e28314b 	0x6e28314b
    7b8c:	2929702c 	slti	t1,t1,28716
    7b90:	01830100 	0x1830100
    7b94:	5f544547 	0x5f544547
    7b98:	4f43504f 	c3	0x143504f
    7b9c:	69284544 	0x69284544
    7ba0:	63282029 	0x63282029
    7ba4:	28747361 	slti	s4,v1,29537
    7ba8:	6f43704f 	0x6f43704f
    7bac:	202c6564 	addi	t4,at,25956
    7bb0:	29692828 	slti	t1,t3,10280
    7bb4:	4f503e3e 	c3	0x1503e3e
    7bb8:	504f5f53 	0x504f5f53
    7bbc:	20262029 	addi	a2,at,8233
    7bc0:	4b53414d 	c2	0x153414d
    7bc4:	49532831 	0x49532831
    7bc8:	4f5f455a 	c3	0x15f455a
    7bcc:	29302c50 	slti	s0,t1,11344
    7bd0:	01002929 	0x1002929
    7bd4:	45530184 	0x45530184
    7bd8:	504f5f54 	0x504f5f54
    7bdc:	45444f43 	0x45444f43
    7be0:	6f2c6928 	0x6f2c6928
    7be4:	28282029 	slti	t0,at,8233
    7be8:	3d202969 	0x3d202969
    7bec:	28282820 	slti	t0,at,10272
    7bf0:	4d262969 	0x4d262969
    7bf4:	304b5341 	andi	t3,v0,0x5341
    7bf8:	5a495328 	0x5a495328
    7bfc:	504f5f45 	0x504f5f45
    7c00:	534f502c 	0x534f502c
    7c04:	29504f5f 	slti	s0,t2,20319
    7c08:	207c2029 	addi	gp,v1,8233
    7c0c:	61632828 	0x61632828
    7c10:	49287473 	0x49287473
    7c14:	7274736e 	0x7274736e
    7c18:	69746375 	0x69746375
    7c1c:	202c6e6f 	addi	t4,at,28271
    7c20:	3c3c296f 	0x3c3c296f
    7c24:	5f534f50 	0x5f534f50
    7c28:	2629504f 	addiu	t1,s1,20559
    7c2c:	4b53414d 	c2	0x153414d
    7c30:	49532831 	0x49532831
    7c34:	4f5f455a 	c3	0x15f455a
    7c38:	4f502c50 	c3	0x1502c50
    7c3c:	504f5f53 	0x504f5f53
    7c40:	29292929 	slti	t1,t1,10537
    7c44:	01870100 	0x1870100
    7c48:	61746567 	0x61746567
    7c4c:	69286772 	0x69286772
    7c50:	736f702c 	0x736f702c
    7c54:	7a69732c 	0x7a69732c
    7c58:	28202965 	slti	zero,at,10597
    7c5c:	74736163 	jalx	1cd858c <foobar+0x1cd8340>
    7c60:	746e6928 	jalx	1b9a4a0 <foobar+0x1b9a254>
    7c64:	2828202c 	slti	t0,at,8236
    7c68:	3e3e2969 	0x3e3e2969
    7c6c:	29736f70 	slti	s3,t3,28528
    7c70:	4d202620 	0x4d202620
    7c74:	314b5341 	andi	t3,t2,0x5341
    7c78:	7a697328 	0x7a697328
    7c7c:	29302c65 	slti	s0,t1,11365
    7c80:	01002929 	0x1002929
    7c84:	65730188 	0x65730188
    7c88:	67726174 	0x67726174
    7c8c:	762c6928 	jalx	8b1a4a0 <foobar+0x8b1a254>
    7c90:	736f702c 	0x736f702c
    7c94:	7a69732c 	0x7a69732c
    7c98:	28202965 	slti	zero,at,10597
    7c9c:	20296928 	addi	t1,at,26920
    7ca0:	2828203d 	slti	t0,at,8253
    7ca4:	26296928 	addiu	t1,s1,26920
    7ca8:	4b53414d 	c2	0x153414d
    7cac:	69732830 	0x69732830
    7cb0:	702c657a 	0x702c657a
    7cb4:	2929736f 	slti	t1,t1,29551
    7cb8:	28207c20 	slti	zero,at,31776
    7cbc:	73616328 	0x73616328
    7cc0:	6e492874 	0x6e492874
    7cc4:	75727473 	jalx	5c9d1cc <foobar+0x5c9cf80>
    7cc8:	6f697463 	0x6f697463
    7ccc:	76202c6e 	jalx	880b1b8 <foobar+0x880af6c>
    7cd0:	703c3c29 	0x703c3c29
    7cd4:	2629736f 	addiu	t1,s1,29551
    7cd8:	4b53414d 	c2	0x153414d
    7cdc:	69732831 	0x69732831
    7ce0:	702c657a 	0x702c657a
    7ce4:	2929736f 	slti	t1,t1,29551
    7ce8:	01002929 	0x1002929
    7cec:	4547018b 	0x4547018b
    7cf0:	47524154 	c1	0x1524154
    7cf4:	6928415f 	0x6928415f
    7cf8:	65672029 	0x65672029
    7cfc:	67726174 	0x67726174
    7d00:	202c6928 	addi	t4,at,26920
    7d04:	5f534f50 	0x5f534f50
    7d08:	53202c41 	0x53202c41
    7d0c:	5f455a49 	0x5f455a49
    7d10:	01002941 	0x1002941
    7d14:	4553018c 	0x4553018c
    7d18:	47524154 	c1	0x1524154
    7d1c:	6928415f 	0x6928415f
    7d20:	2029762c 	addi	t1,at,30252
    7d24:	61746573 	0x61746573
    7d28:	69286772 	0x69286772
    7d2c:	2c76202c 	sltiu	s6,v1,8236
    7d30:	534f5020 	0x534f5020
    7d34:	202c415f 	addi	t4,at,16735
    7d38:	455a4953 	0x455a4953
    7d3c:	0029415f 	0x29415f
    7d40:	47018e01 	c1	0x1018e01
    7d44:	52415445 	0x52415445
    7d48:	28425f47 	slti	v0,v0,24391
    7d4c:	67202969 	0x67202969
    7d50:	72617465 	0x72617465
    7d54:	2c692867 	sltiu	t1,v1,10343
    7d58:	534f5020 	0x534f5020
    7d5c:	202c425f 	addi	t4,at,16991
    7d60:	455a4953 	0x455a4953
    7d64:	0029425f 	0x29425f
    7d68:	53018f01 	0x53018f01
    7d6c:	52415445 	0x52415445
    7d70:	28425f47 	slti	v0,v0,24391
    7d74:	29762c69 	slti	s6,t3,11369
    7d78:	74657320 	jalx	195cc80 <foobar+0x195ca34>
    7d7c:	28677261 	slti	a3,v1,29281
    7d80:	76202c69 	jalx	880b1a4 <foobar+0x880af58>
    7d84:	4f50202c 	c3	0x150202c
    7d88:	2c425f53 	sltiu	v0,v0,24403
    7d8c:	5a495320 	0x5a495320
    7d90:	29425f45 	slti	v0,t2,24389
    7d94:	01910100 	0x1910100
    7d98:	41544547 	0x41544547
    7d9c:	435f4752 	c0	0x15f4752
    7da0:	20296928 	addi	t1,at,26920
    7da4:	61746567 	0x61746567
    7da8:	69286772 	0x69286772
    7dac:	4f50202c 	c3	0x150202c
    7db0:	2c435f53 	sltiu	v1,v0,24403
    7db4:	5a495320 	0x5a495320
    7db8:	29435f45 	slti	v1,t2,24389
    7dbc:	01920100 	0x1920100
    7dc0:	41544553 	0x41544553
    7dc4:	435f4752 	c0	0x15f4752
    7dc8:	762c6928 	jalx	8b1a4a0 <foobar+0x8b1a254>
    7dcc:	65732029 	0x65732029
    7dd0:	67726174 	0x67726174
    7dd4:	202c6928 	addi	t4,at,26920
    7dd8:	50202c76 	0x50202c76
    7ddc:	435f534f 	c0	0x15f534f
    7de0:	4953202c 	0x4953202c
    7de4:	435f455a 	c0	0x15f455a
    7de8:	94010029 	lhu	at,41(zero)
    7dec:	54454701 	0x54454701
    7df0:	5f475241 	0x5f475241
    7df4:	69287842 	0x69287842
    7df8:	65672029 	0x65672029
    7dfc:	67726174 	0x67726174
    7e00:	202c6928 	addi	t4,at,26920
    7e04:	5f534f50 	0x5f534f50
    7e08:	202c7842 	addi	t4,at,30786
    7e0c:	455a4953 	0x455a4953
    7e10:	2978425f 	slti	t8,t3,16991
    7e14:	01950100 	0x1950100
    7e18:	41544553 	0x41544553
    7e1c:	425f4752 	c0	0x5f4752
    7e20:	2c692878 	sltiu	t1,v1,10360
    7e24:	73202976 	0x73202976
    7e28:	72617465 	0x72617465
    7e2c:	2c692867 	sltiu	t1,v1,10343
    7e30:	202c7620 	addi	t4,at,30240
    7e34:	5f534f50 	0x5f534f50
    7e38:	202c7842 	addi	t4,at,30786
    7e3c:	455a4953 	0x455a4953
    7e40:	2978425f 	slti	t8,t3,16991
    7e44:	01970100 	0x1970100
    7e48:	41544547 	0x41544547
    7e4c:	415f4752 	0x415f4752
    7e50:	29692878 	slti	t1,t3,10360
    7e54:	74656720 	jalx	1959c80 <foobar+0x1959a34>
    7e58:	28677261 	slti	a3,v1,29281
    7e5c:	50202c69 	0x50202c69
    7e60:	415f534f 	0x415f534f
    7e64:	53202c78 	0x53202c78
    7e68:	5f455a49 	0x5f455a49
    7e6c:	00297841 	0x297841
    7e70:	53019801 	0x53019801
    7e74:	52415445 	0x52415445
    7e78:	78415f47 	0x78415f47
    7e7c:	762c6928 	jalx	8b1a4a0 <foobar+0x8b1a254>
    7e80:	65732029 	0x65732029
    7e84:	67726174 	0x67726174
    7e88:	202c6928 	addi	t4,at,26920
    7e8c:	50202c76 	0x50202c76
    7e90:	415f534f 	0x415f534f
    7e94:	53202c78 	0x53202c78
    7e98:	5f455a49 	0x5f455a49
    7e9c:	00297841 	0x297841
    7ea0:	47019a01 	c1	0x1019a01
    7ea4:	52415445 	0x52415445
    7ea8:	42735f47 	c0	0x735f47
    7eac:	29692878 	slti	t1,t3,10360
    7eb0:	45472820 	0x45472820
    7eb4:	47524154 	c1	0x1524154
    7eb8:	2878425f 	slti	t8,v1,16991
    7ebc:	4d2d2969 	0x4d2d2969
    7ec0:	52415841 	0x52415841
    7ec4:	42735f47 	c0	0x735f47
    7ec8:	01002978 	0x1002978
    7ecc:	4553019b 	0x4553019b
    7ed0:	47524154 	c1	0x1524154
    7ed4:	7842735f 	0x7842735f
    7ed8:	622c6928 	0x622c6928
    7edc:	45532029 	0x45532029
    7ee0:	47524154 	c1	0x1524154
    7ee4:	2878425f 	slti	t8,v1,16991
    7ee8:	2c296928 	sltiu	t1,at,26920
    7eec:	74736163 	jalx	1cd858c <foobar+0x1cd8340>
    7ef0:	736e7528 	0x736e7528
    7ef4:	656e6769 	0x656e6769
    7ef8:	6e692064 	0x6e692064
    7efc:	28202c74 	slti	zero,at,11380
    7f00:	4d2b2962 	0x4d2b2962
    7f04:	52415841 	0x52415841
    7f08:	42735f47 	c0	0x735f47
    7f0c:	00292978 	0x292978
    7f10:	43019e01 	c0	0x1019e01
    7f14:	54414552 	0x54414552
    7f18:	42415f45 	c0	0x415f45
    7f1c:	2c6f2843 	sltiu	t7,v1,10307
    7f20:	2c622c61 	sltiu	v0,v1,11361
    7f24:	28202963 	slti	zero,at,10595
    7f28:	73616328 	0x73616328
    7f2c:	6e492874 	0x6e492874
    7f30:	75727473 	jalx	5c9d1cc <foobar+0x5c9cf80>
    7f34:	6f697463 	0x6f697463
    7f38:	6f202c6e 	0x6f202c6e
    7f3c:	503c3c29 	0x503c3c29
    7f40:	4f5f534f 	c3	0x15f534f
    7f44:	7c202950 	0x7c202950
    7f48:	61632820 	0x61632820
    7f4c:	49287473 	0x49287473
    7f50:	7274736e 	0x7274736e
    7f54:	69746375 	0x69746375
    7f58:	202c6e6f 	addi	t4,at,28271
    7f5c:	3c3c2961 	0x3c3c2961
    7f60:	5f534f50 	0x5f534f50
    7f64:	7c202941 	0x7c202941
    7f68:	61632820 	0x61632820
    7f6c:	49287473 	0x49287473
    7f70:	7274736e 	0x7274736e
    7f74:	69746375 	0x69746375
    7f78:	202c6e6f 	addi	t4,at,28271
    7f7c:	3c3c2962 	0x3c3c2962
    7f80:	5f534f50 	0x5f534f50
    7f84:	7c202942 	0x7c202942
    7f88:	61632820 	0x61632820
    7f8c:	49287473 	0x49287473
    7f90:	7274736e 	0x7274736e
    7f94:	69746375 	0x69746375
    7f98:	202c6e6f 	addi	t4,at,28271
    7f9c:	3c3c2963 	0x3c3c2963
    7fa0:	5f534f50 	0x5f534f50
    7fa4:	00292943 	0x292943
    7fa8:	4301a301 	c0	0x101a301
    7fac:	54414552 	0x54414552
    7fb0:	42415f45 	c0	0x415f45
    7fb4:	2c6f2878 	sltiu	t7,v1,10360
    7fb8:	63622c61 	0x63622c61
    7fbc:	28282029 	slti	t0,at,8233
    7fc0:	74736163 	jalx	1cd858c <foobar+0x1cd8340>
    7fc4:	736e4928 	0x736e4928
    7fc8:	63757274 	0x63757274
    7fcc:	6e6f6974 	0x6e6f6974
    7fd0:	296f202c 	slti	t7,t3,8236
    7fd4:	4f503c3c 	c3	0x1503c3c
    7fd8:	504f5f53 	0x504f5f53
    7fdc:	207c2029 	addi	gp,v1,8233
    7fe0:	73616328 	0x73616328
    7fe4:	6e492874 	0x6e492874
    7fe8:	75727473 	jalx	5c9d1cc <foobar+0x5c9cf80>
    7fec:	6f697463 	0x6f697463
    7ff0:	61202c6e 	0x61202c6e
    7ff4:	503c3c29 	0x503c3c29
    7ff8:	415f534f 	0x415f534f
    7ffc:	207c2029 	addi	gp,v1,8233
    8000:	73616328 	0x73616328
    8004:	6e492874 	0x6e492874
    8008:	75727473 	jalx	5c9d1cc <foobar+0x5c9cf80>
    800c:	6f697463 	0x6f697463
    8010:	62202c6e 	0x62202c6e
    8014:	3c3c2963 	0x3c3c2963
    8018:	5f534f50 	0x5f534f50
    801c:	29297842 	slti	t1,t1,30786
    8020:	01a70100 	0x1a70100
    8024:	41455243 	0x41455243
    8028:	415f4554 	0x415f4554
    802c:	2c6f2878 	sltiu	t7,v1,10360
    8030:	28202961 	slti	zero,at,10593
    8034:	73616328 	0x73616328
    8038:	6e492874 	0x6e492874
    803c:	75727473 	jalx	5c9d1cc <foobar+0x5c9cf80>
    8040:	6f697463 	0x6f697463
    8044:	6f202c6e 	0x6f202c6e
    8048:	503c3c29 	0x503c3c29
    804c:	4f5f534f 	c3	0x15f534f
    8050:	7c202950 	0x7c202950
    8054:	61632820 	0x61632820
    8058:	49287473 	0x49287473
    805c:	7274736e 	0x7274736e
    8060:	69746375 	0x69746375
    8064:	202c6e6f 	addi	t4,at,28271
    8068:	3c3c2961 	0x3c3c2961
    806c:	5f534f50 	0x5f534f50
    8070:	29297841 	slti	t1,t1,30785
    8074:	01b00100 	0x1b00100
    8078:	52544942 	0x52544942
    807c:	3128204b 	andi	t0,t1,0x204b
    8080:	203c3c20 	addi	gp,at,15392
    8084:	5a495328 	0x5a495328
    8088:	20425f45 	addi	v0,v0,24389
    808c:	2931202d 	slti	s1,t1,8237
    8090:	b3010029 	0xb3010029
    8094:	4b534901 	c2	0x1534901
    8098:	20297828 	addi	t1,at,30760
    809c:	29782828 	slti	t8,t3,10280
    80a0:	42202620 	c0	0x202620
    80a4:	4b525449 	c2	0x1525449
    80a8:	b6010029 	0xb6010029
    80ac:	444e4901 	0x444e4901
    80b0:	284b5845 	slti	t3,v0,22597
    80b4:	28202972 	slti	zero,at,10610
    80b8:	746e6928 	jalx	1b9a4a0 <foobar+0x1b9a254>
    80bc:	29722829 	slti	s2,t3,10281
    80c0:	7e202620 	0x7e202620
    80c4:	52544942 	0x52544942
    80c8:	0100294b 	0x100294b
    80cc:	414d01b8 	0x414d01b8
    80d0:	444e4958 	0x444e4958
    80d4:	4b525845 	c2	0x1525845
    80d8:	49422820 	0x49422820
    80dc:	204b5254 	addi	t3,v0,21076
    80e0:	2931202d 	slti	s1,t1,8237
    80e4:	01bb0100 	0x1bb0100
    80e8:	53414b52 	0x53414b52
    80ec:	2978284b 	slti	t8,t3,10315
    80f0:	78282820 	0x78282820
    80f4:	207c2029 	addi	gp,v1,8233
    80f8:	52544942 	0x52544942
    80fc:	0100294b 	0x100294b
    8100:	4f4e01c1 	c3	0x14e01c1
    8104:	4745525f 	c1	0x145525f
    8108:	58414d20 	0x58414d20
    810c:	5f475241 	0x5f475241
    8110:	8e010041 	lw	at,65(s0)
    8114:	4d554e02 	0x4d554e02
    8118:	43504f5f 	c0	0x1504f5f
    811c:	5345444f 	0x5345444f
    8120:	61632820 	0x61632820
    8124:	69287473 	0x69287473
    8128:	202c746e 	addi	t4,at,29806
    812c:	455f504f 	0x455f504f
    8130:	41525458 	0x41525458
    8134:	29475241 	slti	a3,t2,21057
    8138:	31202b20 	andi	zero,t1,0x2b20
    813c:	ca010029 	lwc2	$1,41(s0)
    8140:	49464c02 	0x49464c02
    8144:	53444c45 	0x53444c45
    8148:	5245505f 	0x5245505f
    814c:	554c465f 	0x554c465f
    8150:	35204853 	ori	zero,t1,0x4853
    8154:	03040030 	0x3040030
    8158:	01042e0d 	break	0x104,0xb8
    815c:	5248540f 	0x5248540f
    8160:	6528574f 	0x6528574f
    8164:	6f642029 	0x6f642029
    8168:	68777d7b 	0x68777d7b
    816c:	28656c69 	slti	a1,v1,27753
    8170:	04002930 	bltz	zero,12634 <foobar+0x123e8>
    8174:	Address 0x0000000000008174 is out of bounds.


Disassembly of section .rodata:

00000000 <.rodata>:
   0:	61657263 	0x61657263
   4:	74206574 	jalx	8195d0 <foobar+0x819384>
   8:	656c6261 	0x656c6261
   c:	0a702520 	j	9c09480 <foobar+0x9c09234>
  10:	00000000 	nop
	...

Disassembly of section .debug_frame:

00000000 <.debug_frame>:
   0:	0000000c 	syscall
   4:	ffffffff 	0xffffffff
   8:	7c010001 	0x7c010001
   c:	001d0c1f 	0x1d0c1f
  10:	0000001c 	0x1c
	...
  1c:	000000a8 	0xa8
  20:	48280e44 	0x48280e44
  24:	11021e11 	beq	t0,v0,786c <foobar+0x7620>
  28:	0d44011f 	jal	510047c <foobar+0x5100230>
  2c:	0000001e 	0x1e
  30:	00000018 	mult	zero,zero
  34:	00000000 	nop
  38:	000000a8 	0xa8
  3c:	00000058 	0x58
  40:	44080e44 	0x44080e44
  44:	44011e11 	0x44011e11
  48:	00001e0d 	break	0x0,0x78
  4c:	00000018 	mult	zero,zero
  50:	00000000 	nop
  54:	00000100 	sll	zero,zero,0x4
  58:	0000005c 	0x5c
  5c:	44180e44 	0x44180e44
  60:	44011e11 	0x44011e11
  64:	00001e0d 	break	0x0,0x78
  68:	0000001c 	0x1c
  6c:	00000000 	nop
  70:	0000015c 	0x15c
  74:	000000f0 	0xf0
  78:	4c300e44 	0x4c300e44
  7c:	11031011 	beq	t0,v1,40c4 <foobar+0x3e78>
  80:	1f11021e 	0x1f11021e
  84:	1e0d4401 	0x1e0d4401
  88:	0000001c 	0x1c
  8c:	00000000 	nop
  90:	0000024c 	syscall	0x9
  94:	00000050 	0x50
  98:	48380e44 	0x48380e44
  9c:	11021e11 	beq	t0,v0,78e4 <foobar+0x7698>
  a0:	0d44011f 	jal	510047c <foobar+0x5100230>
  a4:	0000001e 	0x1e

Disassembly of section .debug_loc:

00000000 <.debug_loc>:
   0:	00000000 	nop
   4:	00000004 	sllv	zero,zero,zero
   8:	046d0001 	0x46d0001
   c:	10000000 	b	10 <.debug_loc+0x10>
  10:	02000000 	0x2000000
  14:	10288d00 	beq	at,t0,fffe3418 <foobar+0xfffe31cc>
  18:	a8000000 	swl	zero,0(zero)
  1c:	02000000 	0x2000000
  20:	00288e00 	0x288e00
  24:	00000000 	nop
  28:	a8000000 	swl	zero,0(zero)
  2c:	ac000000 	sw	zero,0(zero)
  30:	01000000 	0x1000000
  34:	00ac6d00 	0xac6d00
  38:	00b40000 	0xb40000
  3c:	00020000 	sll	zero,v0,0x0
  40:	00b4088d 	break	0xb4,0x22
  44:	01000000 	0x1000000
  48:	00020000 	sll	zero,v0,0x0
  4c:	0000088e 	0x88e
  50:	00000000 	nop
  54:	01000000 	0x1000000
  58:	01040000 	0x1040000
  5c:	00010000 	sll	zero,at,0x0
  60:	0001046d 	0x1046d
  64:	00010c00 	sll	at,at,0x10
  68:	8d000200 	lw	zero,512(t0)
  6c:	00010c18 	0x10c18
  70:	00015c00 	sll	t3,at,0x10
  74:	8e000200 	lw	zero,512(s0)
  78:	00000018 	mult	zero,zero
  7c:	00000000 	nop
  80:	00015c00 	sll	t3,at,0x10
  84:	00016000 	sll	t4,at,0x0
  88:	6d000100 	0x6d000100
  8c:	00000160 	0x160
  90:	00000170 	0x170
  94:	308d0002 	andi	t5,a0,0x2
  98:	00000170 	0x170
  9c:	0000024c 	syscall	0x9
  a0:	308e0002 	andi	t6,a0,0x2
	...
  ac:	0000024c 	syscall	0x9
  b0:	00000250 	0x250
  b4:	506d0001 	0x506d0001
  b8:	5c000002 	0x5c000002
  bc:	02000002 	0x2000002
  c0:	5c388d00 	0x5c388d00
  c4:	9c000002 	0x9c000002
  c8:	02000002 	0x2000002
  cc:	00388e00 	0x388e00
  d0:	00000000 	nop
  d4:	Address 0x00000000000000d4 is out of bounds.


Disassembly of section .debug_pubnames:

00000000 <.debug_pubnames>:
   0:	00000058 	0x58
   4:	00000002 	srl	zero,zero,0x0
   8:	02c70000 	0x2c70000
   c:	01290000 	0x1290000
  10:	61740000 	0x61740000
  14:	5f656c62 	0x5f656c62
  18:	61657263 	0x61657263
  1c:	82006574 	lb	zero,25972(s0)
  20:	74000001 	jalx	4 <.debug_pubnames+0x4>
  24:	656c6261 	0x656c6261
  28:	7465735f 	jalx	195cd7c <foobar+0x195cb30>
  2c:	0001d800 	sll	k1,at,0x0
  30:	62617400 	0x62617400
  34:	675f656c 	0x675f656c
  38:	40007465 	0x40007465
  3c:	74000002 	jalx	8 <.debug_pubnames+0x8>
  40:	656c6261 	0x656c6261
  44:	7465735f 	jalx	195cd7c <foobar+0x195cb30>
  48:	7473696c 	jalx	1cda5b0 <foobar+0x1cda364>
  4c:	0002a500 	sll	s4,v0,0x14
  50:	6f6f6600 	0x6f6f6600
  54:	00726162 	0x726162
  58:	00000000 	nop

Disassembly of section .debug_aranges:

00000000 <.debug_aranges>:
   0:	0000001c 	0x1c
   4:	00000002 	srl	zero,zero,0x0
   8:	00040000 	sll	zero,a0,0x0
	...
  14:	0000029c 	0x29c
	...

Disassembly of section .debug_str:

00000000 <.debug_str>:
   0:	6c626174 	0x6c626174
   4:	65735f65 	0x65735f65
   8:	64690074 	0x64690074
   c:	77007678 	jalx	c01d9e0 <foobar+0xc01d794>
  10:	0064726f 	0x64726f
  14:	69736e75 	0x69736e75
  18:	64656e67 	0x64656e67
  1c:	61686320 	0x61686320
  20:	756c0072 	jalx	5b001c8 <foobar+0x5afff7c>
  24:	754e5f61 	jalx	5397d84 <foobar+0x5397b38>
  28:	7265626d 	0x7265626d
  2c:	6e6f6c00 	0x6e6f6c00
  30:	6e752067 	0x6e752067
  34:	6e676973 	0x6e676973
  38:	69206465 	0x69206465
  3c:	7300746e 	0x7300746e
  40:	74726f68 	jalx	1c9bda0 <foobar+0x1c9bb54>
  44:	736e7520 	0x736e7520
  48:	656e6769 	0x656e6769
  4c:	6e692064 	0x6e692064
  50:	69730074 	0x69730074
  54:	745f657a 	jalx	17d95e8 <foobar+0x17d939c>
  58:	62617400 	0x62617400
  5c:	7400656c 	jalx	195b0 <foobar+0x19364>
  60:	656c6261 	0x656c6261
  64:	7465735f 	jalx	195cd7c <foobar+0x195cb30>
  68:	7473696c 	jalx	1cda5b0 <foobar+0x1cda364>
  6c:	6c615600 	0x6c615600
  70:	75006575 	jalx	40195d4 <foobar+0x4019388>
  74:	6769736e 	0x6769736e
  78:	2064656e 	addi	a0,v1,25966
  7c:	00746e69 	0x746e69
  80:	676e6f6c 	0x676e6f6c
  84:	6e6f6c20 	0x6e6f6c20
  88:	6e752067 	0x6e752067
  8c:	6e676973 	0x6e676973
  90:	69206465 	0x69206465
  94:	6900746e 	0x6900746e
  98:	00747864 	0x747864
  9c:	68736168 	0x68736168
  a0:	6f682f00 	0x6f682f00
  a4:	692f656d 	0x692f656d
  a8:	2f6e6961 	sltiu	t6,k1,26977
  ac:	6a6f7250 	0x6a6f7250
  b0:	73746365 	0x73746365
  b4:	756c652f 	jalx	5b194bc <foobar+0x5b19270>
  b8:	74696a61 	jalx	1a5a984 <foobar+0x1a5a738>
  bc:	6e6f6c00 	0x6e6f6c00
  c0:	6f6c2067 	0x6f6c2067
  c4:	6920676e 	0x6920676e
  c8:	6600746e 	0x6600746e
  cc:	61626f6f 	0x61626f6f
  d0:	68630072 	0x68630072
  d4:	47007261 	c1	0x1007261
  d8:	4320554e 	c0	0x120554e
  dc:	342e3420 	ori	t6,at,0x3420
  e0:	7400352e 	jalx	d4b8 <foobar+0xd26c>
  e4:	00657079 	0x657079
  e8:	756c6176 	jalx	5b185d8 <foobar+0x5b1838c>
  ec:	72610065 	0x72610065
  f0:	00796172 	0x796172
  f4:	726f6873 	0x726f6873
  f8:	6e692074 	0x6e692074
  fc:	61740074 	0x61740074
 100:	5f656c62 	0x5f656c62
 104:	00746567 	0x746567
 108:	746e6975 	jalx	1b9a5d4 <foobar+0x1b9a388>
 10c:	745f3233 	jalx	17cc8cc <foobar+0x17cc680>
 110:	6e6f6c00 	0x6e6f6c00
 114:	6e692067 	0x6e692067
 118:	61740074 	0x61740074
 11c:	5f656c62 	0x5f656c62
 120:	61740074 	0x61740074
 124:	2e656c62 	sltiu	a1,s3,27746
 128:	69730063 	0x69730063
 12c:	64656e67 	0x64656e67
 130:	61686320 	0x61686320
 134:	425f0072 	c0	0x5f0072
 138:	006c6f6f 	0x6c6f6f
 13c:	6c626174 	0x6c626174
 140:	72635f65 	0x72635f65
 144:	65746165 	0x65746165
	...

Disassembly of section .comment:

00000000 <.comment>:
   0:	43434700 	c0	0x1434700
   4:	4428203a 	0x4428203a
   8:	61696265 	0x61696265
   c:	2e34206e 	sltiu	s4,s1,8302
  10:	2d352e34 	sltiu	s5,t1,11828
  14:	34202938 	ori	zero,at,0x2938
  18:	352e342e 	ori	t6,t1,0x342e
	...

Disassembly of section .gnu.attributes:

00000000 <.gnu.attributes>:
   0:	00000f41 	0xf41
   4:	756e6700 	jalx	5b99c00 <foobar+0x5b999b4>
   8:	00070100 	sll	zero,a3,0x4
   c:	01040000 	0x1040000
